(dp0
S'classes'
p1
(lp2
VProjection
p3
aVRename
p4
aVStream definition
p5
asS'x_train'
p6
(lp7
(lp8
I0
aI0
aI1
aI0
aI0
aI0
aI0
aI0
aI0
aI0
aI0
aI1
aI0
aI0
aI1
aI1
aI0
aI0
aI0
aI0
aI0
aI0
aI0
aI0
aI1
aI1
aI1
aI0
aI0
aI0
aI1
aI0
aa(lp9
I0
aI0
aI0
aI0
aI0
aI0
aI1
aI1
aI0
aI0
aI0
aI0
aI0
aI0
aI0
aI0
aI0
aI0
aI0
aI0
aI0
aI0
aI0
aI0
aI1
aI0
aI1
aI0
aI1
aI0
aI0
aI0
aa(lp10
I0
aI0
aI0
aI0
aI0
aI0
aI0
aI0
aI0
aI0
aI0
aI1
aI0
aI1
aI0
aI0
aI0
aI0
aI0
aI0
aI0
aI1
aI0
aI0
aI0
aI0
aI0
aI0
aI0
aI0
aI0
aI0
aa(lp11
I0
aI0
aI0
aI0
aI0
aI0
aI0
aI1
aI0
aI0
aI0
aI0
aI0
aI0
aI0
aI0
aI0
aI0
aI0
aI0
aI0
aI0
aI0
aI0
aI1
aI0
aI1
aI1
aI0
aI0
aI0
aI1
aa(lp12
I1
aI0
aI0
aI0
aI0
aI0
aI1
aI0
aI1
aI1
aI0
aI0
aI1
aI0
aI0
aI0
aI0
aI0
aI1
aI0
aI0
aI0
aI0
aI0
aI1
aI0
aI0
aI0
aI0
aI0
aI0
aI0
aa(lp13
I0
aI0
aI0
aI1
aI0
aI0
aI0
aI0
aI0
aI0
aI0
aI0
aI0
aI0
aI0
aI0
aI0
aI1
aI0
aI0
aI0
aI0
aI0
aI1
aI1
aI0
aI1
aI0
aI0
aI0
aI0
aI0
aa(lp14
I0
aI0
aI0
aI0
aI0
aI0
aI0
aI0
aI0
aI0
aI0
aI1
aI0
aI1
aI0
aI0
aI0
aI0
aI0
aI0
aI0
aI1
aI0
aI0
aI1
aI1
aI1
aI0
aI0
aI0
aI1
aI0
aa(lp15
I0
aI1
aI0
aI0
aI0
aI0
aI0
aI0
aI0
aI0
aI0
aI0
aI0
aI0
aI0
aI0
aI0
aI0
aI0
aI0
aI1
aI0
aI0
aI0
aI1
aI0
aI1
aI1
aI1
aI0
aI0
aI0
aa(lp16
I0
aI0
aI0
aI0
aI0
aI0
aI0
aI0
aI0
aI0
aI0
aI1
aI0
aI1
aI0
aI0
aI0
aI0
aI0
aI1
aI0
aI1
aI0
aI0
aI1
aI0
aI1
aI0
aI0
aI0
aI1
aI0
aa(lp17
I1
aI0
aI0
aI0
aI0
aI1
aI0
aI0
aI0
aI0
aI0
aI0
aI1
aI0
aI0
aI0
aI1
aI1
aI1
aI0
aI0
aI0
aI0
aI0
aI1
aI0
aI0
aI0
aI0
aI0
aI0
aI0
aa(lp18
I0
aI0
aI0
aI0
aI1
aI0
aI0
aI0
aI0
aI0
aI0
aI0
aI0
aI1
aI0
aI0
aI0
aI0
aI0
aI0
aI0
aI1
aI0
aI0
aI0
aI0
aI0
aI0
aI0
aI0
aI0
aI0
aag13
a(lp19
I0
aI0
aI1
aI0
aI0
aI0
aI0
aI0
aI0
aI0
aI1
aI1
aI0
aI0
aI0
aI0
aI0
aI0
aI0
aI0
aI0
aI0
aI1
aI0
aI1
aI1
aI1
aI0
aI1
aI0
aI0
aI0
aa(lp20
I1
aI0
aI0
aI0
aI0
aI0
aI1
aI0
aI0
aI0
aI0
aI0
aI1
aI0
aI0
aI0
aI1
aI0
aI1
aI0
aI0
aI0
aI0
aI0
aI1
aI0
aI0
aI0
aI0
aI1
aI0
aI0
aa(lp21
I1
aI0
aI0
aI0
aI0
aI0
aI0
aI0
aI1
aI1
aI0
aI0
aI0
aI0
aI0
aI0
aI0
aI1
aI1
aI0
aI0
aI0
aI0
aI0
aI1
aI0
aI0
aI0
aI0
aI0
aI0
aI1
aa(lp22
I1
aI0
aI0
aI0
aI0
aI0
aI0
aI0
aI0
aI1
aI0
aI0
aI0
aI0
aI0
aI0
aI0
aI1
aI1
aI0
aI0
aI0
aI0
aI0
aI1
aI0
aI0
aI0
aI0
aI1
aI0
aI1
aag21
ag21
a(lp23
I1
aI0
aI0
aI0
aI0
aI1
aI1
aI0
aI0
aI0
aI0
aI0
aI1
aI0
aI0
aI0
aI1
aI0
aI1
aI0
aI0
aI0
aI0
aI0
aI1
aI0
aI0
aI0
aI0
aI0
aI0
aI0
aa(lp24
I0
aI0
aI0
aI1
aI0
aI0
aI0
aI0
aI0
aI0
aI0
aI0
aI0
aI0
aI0
aI0
aI1
aI1
aI1
aI0
aI0
aI0
aI0
aI0
aI0
aI0
aI1
aI0
aI0
aI0
aI0
aI0
aa(lp25
I0
aI0
aI1
aI0
aI0
aI0
aI0
aI0
aI0
aI0
aI0
aI1
aI0
aI0
aI0
aI0
aI0
aI0
aI0
aI1
aI0
aI0
aI1
aI0
aI1
aI0
aI1
aI0
aI1
aI0
aI1
aI0
aa(lp26
I0
aI0
aI0
aI0
aI0
aI0
aI0
aI0
aI0
aI0
aI0
aI0
aI0
aI0
aI0
aI0
aI0
aI0
aI0
aI0
aI0
aI0
aI0
aI1
aI1
aI0
aI1
aI1
aI0
aI0
aI0
aI1
aag23
ag17
a(lp27
I0
aI0
aI1
aI0
aI0
aI0
aI0
aI0
aI0
aI0
aI0
aI1
aI0
aI0
aI1
aI1
aI0
aI0
aI0
aI1
aI0
aI0
aI0
aI0
aI1
aI0
aI1
aI0
aI0
aI0
aI1
aI0
aa(lp28
I0
aI0
aI1
aI0
aI0
aI1
aI0
aI0
aI0
aI0
aI0
aI1
aI0
aI0
aI1
aI1
aI0
aI0
aI0
aI1
aI0
aI0
aI0
aI0
aI1
aI0
aI1
aI0
aI0
aI0
aI0
aI0
aa(lp29
I1
aI0
aI0
aI0
aI0
aI0
aI0
aI0
aI0
aI1
aI0
aI0
aI1
aI0
aI0
aI0
aI0
aI1
aI1
aI0
aI0
aI0
aI0
aI0
aI1
aI0
aI0
aI0
aI0
aI1
aI0
aI0
aag14
a(lp30
I0
aI0
aI0
aI1
aI0
aI0
aI1
aI0
aI0
aI0
aI0
aI0
aI0
aI0
aI0
aI0
aI0
aI0
aI0
aI0
aI0
aI0
aI0
aI1
aI1
aI0
aI1
aI0
aI0
aI0
aI0
aI0
aa(lp31
I0
aI0
aI0
aI0
aI0
aI0
aI0
aI1
aI0
aI0
aI0
aI0
aI0
aI0
aI0
aI0
aI0
aI1
aI0
aI0
aI0
aI0
aI0
aI0
aI1
aI0
aI1
aI1
aI0
aI0
aI0
aI1
aa(lp32
I0
aI0
aI1
aI0
aI0
aI0
aI0
aI0
aI0
aI0
aI1
aI1
aI0
aI0
aI1
aI1
aI0
aI0
aI0
aI0
aI0
aI0
aI0
aI0
aI1
aI1
aI1
aI0
aI0
aI0
aI0
aI0
aag21
ag25
ag23
ag13
a(lp33
I1
aI0
aI0
aI0
aI0
aI1
aI0
aI0
aI0
aI0
aI0
aI0
aI0
aI0
aI0
aI0
aI1
aI1
aI1
aI0
aI0
aI0
aI0
aI0
aI1
aI0
aI0
aI0
aI0
aI0
aI0
aI1
aag25
ag16
ag24
ag26
ag30
a(lp34
I1
aI0
aI0
aI0
aI0
aI0
aI1
aI0
aI0
aI1
aI1
aI0
aI1
aI0
aI0
aI0
aI0
aI0
aI1
aI0
aI0
aI0
aI0
aI0
aI1
aI0
aI0
aI0
aI0
aI0
aI0
aI0
aa(lp35
I0
aI0
aI0
aI0
aI0
aI0
aI0
aI0
aI0
aI0
aI0
aI0
aI0
aI0
aI0
aI0
aI0
aI1
aI0
aI0
aI0
aI0
aI0
aI1
aI1
aI0
aI1
aI1
aI0
aI0
aI0
aI1
aag15
a(lp36
I0
aI0
aI1
aI0
aI0
aI0
aI0
aI0
aI0
aI0
aI1
aI1
aI0
aI0
aI0
aI0
aI0
aI0
aI0
aI1
aI0
aI0
aI1
aI0
aI1
aI0
aI1
aI0
aI1
aI0
aI0
aI0
aag11
a(lp37
I1
aI0
aI0
aI0
aI0
aI0
aI0
aI0
aI0
aI1
aI1
aI0
aI1
aI0
aI0
aI0
aI0
aI1
aI1
aI0
aI0
aI0
aI0
aI0
aI1
aI0
aI0
aI0
aI0
aI0
aI0
aI0
aa(lp38
I0
aI0
aI1
aI0
aI0
aI0
aI0
aI0
aI0
aI0
aI0
aI1
aI0
aI0
aI0
aI0
aI0
aI0
aI0
aI0
aI0
aI0
aI1
aI0
aI1
aI1
aI1
aI0
aI1
aI0
aI1
aI0
aag26
a(lp39
I1
aI0
aI0
aI0
aI0
aI0
aI0
aI0
aI1
aI0
aI0
aI0
aI1
aI0
aI0
aI0
aI1
aI1
aI1
aI0
aI0
aI0
aI0
aI0
aI1
aI0
aI0
aI0
aI0
aI0
aI0
aI0
aag13
ag31
ag17
ag33
ag28
a(lp40
I0
aI0
aI1
aI0
aI0
aI1
aI0
aI0
aI0
aI0
aI0
aI1
aI0
aI0
aI1
aI1
aI0
aI0
aI0
aI0
aI0
aI0
aI0
aI0
aI1
aI1
aI1
aI0
aI0
aI0
aI0
aI0
aag33
ag40
ag23
a(lp41
I1
aI0
aI0
aI0
aI0
aI0
aI0
aI0
aI0
aI0
aI1
aI0
aI0
aI0
aI0
aI0
aI1
aI1
aI1
aI0
aI0
aI0
aI0
aI0
aI1
aI0
aI0
aI0
aI0
aI0
aI0
aI1
aa(lp42
I0
aI0
aI0
aI1
aI0
aI0
aI0
aI0
aI0
aI0
aI0
aI0
aI0
aI0
aI0
aI0
aI0
aI0
aI0
aI0
aI0
aI0
aI0
aI1
aI1
aI0
aI1
aI1
aI0
aI0
aI0
aI0
aa(lp43
I0
aI0
aI0
aI0
aI0
aI0
aI0
aI0
aI0
aI0
aI0
aI0
aI0
aI0
aI0
aI0
aI0
aI1
aI0
aI0
aI0
aI0
aI0
aI1
aI1
aI0
aI1
aI0
aI0
aI0
aI0
aI1
aag13
ag18
ag9
ag31
ag18
ag29
a(lp44
I0
aI0
aI0
aI0
aI0
aI0
aI0
aI0
aI0
aI0
aI0
aI0
aI0
aI0
aI0
aI0
aI1
aI1
aI1
aI0
aI1
aI0
aI0
aI0
aI0
aI0
aI1
aI0
aI0
aI0
aI0
aI0
aag22
ag35
ag25
ag26
ag39
ag40
ag44
ag16
ag25
ag38
ag39
ag27
ag22
ag41
ag38
ag34
ag12
ag39
ag38
ag27
ag27
ag21
ag27
ag24
ag26
ag24
ag11
ag17
ag17
ag20
a(lp45
I1
aI0
aI0
aI0
aI0
aI0
aI1
aI0
aI0
aI0
aI0
aI0
aI0
aI0
aI0
aI0
aI1
aI0
aI1
aI0
aI0
aI0
aI0
aI0
aI1
aI0
aI0
aI0
aI0
aI1
aI0
aI1
aag42
a(lp46
I1
aI0
aI0
aI0
aI0
aI0
aI1
aI0
aI1
aI0
aI0
aI0
aI0
aI0
aI0
aI0
aI1
aI0
aI1
aI0
aI0
aI0
aI0
aI0
aI1
aI0
aI0
aI0
aI0
aI0
aI0
aI1
aag37
ag34
ag18
a(lp47
I0
aI0
aI1
aI0
aI0
aI0
aI0
aI0
aI0
aI0
aI1
aI1
aI0
aI0
aI1
aI1
aI0
aI0
aI0
aI1
aI0
aI0
aI0
aI0
aI1
aI0
aI1
aI0
aI0
aI0
aI0
aI0
aa(lp48
I0
aI0
aI0
aI0
aI0
aI0
aI1
aI1
aI0
aI0
aI0
aI0
aI0
aI0
aI0
aI0
aI0
aI1
aI0
aI0
aI0
aI0
aI0
aI0
aI1
aI0
aI1
aI0
aI0
aI0
aI0
aI1
aag34
ag20
ag18
ag28
a(lp49
I0
aI1
aI0
aI0
aI0
aI0
aI0
aI0
aI0
aI0
aI0
aI0
aI0
aI0
aI0
aI0
aI0
aI1
aI0
aI0
aI1
aI0
aI0
aI0
aI1
aI0
aI1
aI0
aI1
aI0
aI0
aI0
aag25
ag21
ag43
ag35
ag35
ag25
ag16
ag42
ag27
ag29
ag33
ag41
ag9
ag42
ag36
ag27
ag49
ag28
ag31
ag45
ag42
ag37
ag41
ag44
ag36
ag45
ag12
ag35
ag15
ag15
ag35
ag45
ag35
ag34
ag46
ag12
ag44
ag37
ag49
ag48
ag33
ag49
ag47
ag28
ag15
ag13
ag9
ag34
ag21
ag24
ag24
ag23
ag25
ag27
ag36
ag48
ag34
ag13
ag47
ag14
ag15
ag13
a(lp50
I0
aI0
aI0
aI1
aI0
aI0
aI1
aI1
aI0
aI0
aI0
aI0
aI0
aI0
aI0
aI0
aI0
aI0
aI0
aI0
aI0
aI0
aI0
aI0
aI1
aI0
aI1
aI0
aI0
aI0
aI0
aI0
aag49
ag48
ag14
ag50
ag31
ag18
ag30
ag20
ag12
ag32
ag25
ag29
ag17
ag11
ag40
ag28
ag13
ag38
ag28
ag25
ag27
ag36
ag45
ag49
ag39
ag14
ag36
ag49
ag49
ag9
ag11
ag34
ag25
ag46
ag50
ag36
ag46
ag42
ag43
ag23
ag37
ag41
ag12
ag22
ag38
ag39
ag16
ag46
ag34
ag8
ag17
ag12
ag42
ag11
ag17
ag9
ag37
ag41
ag10
ag11
ag9
ag17
ag49
ag39
ag18
ag38
ag46
ag50
ag46
ag43
ag9
ag42
ag50
ag37
ag24
ag43
ag26
ag31
ag32
ag9
ag13
ag10
ag44
ag36
ag25
ag31
ag42
ag19
ag50
ag36
ag43
ag14
ag21
ag49
ag32
ag17
ag27
ag17
ag43
ag43
ag22
ag50
ag15
ag40
ag9
ag26
ag8
ag12
ag11
ag34
ag14
ag50
ag28
ag30
ag23
ag45
ag45
ag49
ag20
ag50
ag32
ag10
ag24
ag13
ag38
ag50
ag18
ag32
ag50
ag11
ag8
ag9
ag19
ag33
ag20
ag39
ag50
ag39
ag11
ag13
ag14
ag44
ag22
ag26
ag21
ag29
ag47
ag22
ag35
ag27
ag23
ag25
ag39
ag29
ag38
ag14
ag19
ag30
ag27
ag35
ag19
ag26
ag50
ag36
ag12
ag49
ag35
ag46
ag8
ag8
ag30
ag10
ag17
ag37
ag30
ag48
ag46
ag40
ag46
ag11
ag36
ag9
ag38
ag16
ag48
ag12
ag36
ag15
ag36
ag49
ag23
ag45
ag8
ag44
ag23
ag8
ag47
ag48
ag44
ag28
ag21
ag35
ag39
ag11
ag45
ag21
ag50
ag40
ag15
ag20
ag34
ag19
ag38
ag9
ag10
ag28
ag40
ag47
ag21
ag38
ag32
ag24
ag15
ag19
ag26
ag9
ag21
ag14
ag44
ag35
ag50
ag37
ag11
ag31
ag50
ag17
ag20
ag40
ag10
ag13
ag21
ag47
ag37
ag9
ag47
ag32
ag43
ag49
ag35
ag22
ag46
ag16
ag22
ag32
ag22
ag36
ag35
ag24
ag8
ag41
ag16
ag24
ag31
ag44
ag23
ag37
ag23
ag45
ag12
ag29
ag40
ag25
ag15
ag47
ag49
ag40
ag27
ag33
ag13
ag22
ag17
ag25
ag24
ag30
ag13
ag30
ag12
ag19
ag33
ag37
ag31
ag28
ag34
ag23
ag42
ag28
ag46
ag21
ag17
ag22
ag29
ag17
ag28
ag30
ag41
ag30
ag25
ag37
ag42
ag14
ag28
ag37
ag10
ag41
ag50
ag13
ag25
ag12
ag10
ag24
ag27
ag25
ag39
ag34
ag10
ag32
ag42
ag18
ag39
ag10
ag39
ag18
ag48
ag30
ag32
ag37
ag41
ag15
ag38
ag28
ag18
ag15
ag44
ag21
ag44
ag42
ag26
ag27
ag42
ag28
ag20
ag9
ag41
ag12
ag22
ag45
ag12
ag39
ag39
ag31
ag32
ag15
ag21
ag16
ag44
ag44
ag29
ag15
ag8
ag26
ag40
ag48
ag26
ag9
ag50
ag14
ag43
ag38
ag50
ag44
ag11
ag43
ag12
ag42
ag19
ag41
ag47
ag34
ag32
ag35
ag43
ag50
ag40
ag37
ag47
ag40
ag42
ag26
ag49
ag17
ag34
ag8
ag17
ag12
ag8
ag20
ag23
ag30
ag23
ag29
ag40
ag13
ag49
ag40
ag19
ag20
ag16
ag27
ag8
ag34
ag16
ag16
ag47
ag50
ag49
ag31
ag38
ag18
ag39
ag10
ag29
ag11
ag13
ag49
ag13
ag37
ag48
ag13
ag41
ag12
ag19
ag27
ag30
ag19
ag15
ag49
ag36
ag13
ag42
ag9
ag44
ag32
ag31
ag11
ag10
ag10
ag31
ag9
ag11
ag29
ag43
ag41
ag11
ag44
ag34
ag46
ag20
ag48
ag10
ag47
ag30
ag45
ag8
ag41
ag38
ag16
ag40
ag38
ag50
ag27
ag22
ag49
ag25
ag10
ag12
ag45
ag35
ag36
ag24
ag41
ag15
ag13
ag42
ag30
ag43
ag25
ag46
ag18
ag14
ag40
ag49
ag31
ag19
ag22
ag21
ag9
ag30
ag45
ag19
ag28
ag13
ag38
ag45
ag39
ag49
ag14
ag26
ag41
ag37
ag30
ag9
ag45
ag19
ag40
ag33
ag32
ag16
ag38
ag18
ag9
ag8
ag10
ag34
ag23
ag45
ag17
ag37
ag12
ag20
ag35
ag30
ag33
ag34
ag43
ag12
ag17
ag14
ag26
ag35
ag21
ag47
ag12
ag22
ag30
ag39
ag8
ag15
ag39
ag33
ag33
ag46
ag26
ag25
ag49
ag8
ag31
ag38
ag30
ag9
ag12
ag30
ag46
ag44
ag24
ag29
ag25
ag10
ag48
ag29
ag42
ag48
ag9
ag16
ag47
ag44
ag26
ag32
ag46
ag31
ag37
ag26
ag29
ag39
ag40
ag20
ag40
ag44
ag47
ag8
ag29
ag35
ag38
ag43
ag11
ag30
ag27
ag44
ag28
ag41
ag8
ag41
ag47
ag15
ag22
ag37
ag14
ag23
ag25
ag38
ag43
ag36
ag13
ag21
ag46
ag14
ag45
ag14
ag29
ag10
ag12
ag20
ag25
ag20
ag35
ag17
ag23
ag11
ag40
ag34
ag41
ag15
ag21
ag38
ag38
ag12
ag15
ag20
ag35
ag19
ag10
ag41
ag46
ag19
ag46
ag37
ag46
ag25
ag43
ag20
ag23
ag33
ag23
ag24
ag36
ag18
ag34
ag49
ag28
ag28
ag43
ag8
ag29
ag45
ag26
ag41
ag33
ag21
ag32
ag21
ag28
ag41
ag29
ag20
ag17
ag48
ag21
ag29
ag34
ag35
ag16
ag34
ag34
ag47
ag36
ag18
ag36
ag31
ag42
ag28
ag13
ag20
ag27
ag19
ag43
ag24
ag50
ag20
ag32
ag33
ag20
ag10
ag21
ag33
ag45
ag22
ag32
ag33
ag47
ag23
ag18
ag9
ag27
ag34
ag26
ag10
ag16
ag41
ag42
ag16
ag25
ag15
ag8
ag16
ag25
ag46
ag48
ag9
ag10
ag37
ag8
ag14
ag50
ag36
ag16
ag33
ag14
ag16
ag48
ag37
ag26
ag20
ag25
ag49
ag20
ag36
ag37
ag15
ag32
ag38
ag49
ag45
ag43
ag28
ag27
ag37
ag18
ag36
ag35
ag10
ag19
ag8
ag41
ag30
ag42
ag8
ag17
ag35
ag43
ag33
ag23
ag19
ag28
ag31
ag36
ag29
ag39
ag30
ag27
ag45
ag17
ag48
ag24
ag30
ag45
ag47
ag23
ag21
ag19
ag15
ag50
ag47
ag27
ag26
ag19
ag20
ag45
ag28
ag33
ag35
ag15
ag43
ag36
ag13
ag45
ag20
ag36
ag12
ag13
ag46
ag13
ag10
ag33
ag14
ag38
ag30
ag41
ag14
ag37
ag8
ag48
ag44
ag9
ag32
ag32
ag23
ag43
ag18
ag38
ag40
ag36
ag48
ag29
ag8
ag42
ag36
ag11
ag10
ag27
ag18
ag27
ag16
ag41
ag25
ag29
ag27
ag43
ag26
ag18
ag16
ag28
ag40
ag45
ag50
ag46
ag33
ag24
ag48
ag50
ag37
ag47
ag39
ag45
ag26
ag9
ag31
ag37
ag19
ag18
ag29
ag38
ag48
ag22
ag25
ag49
ag41
ag18
ag10
ag15
ag40
ag47
ag33
ag40
ag15
ag31
ag18
ag28
ag23
ag9
ag11
ag23
ag28
ag22
ag41
ag21
ag25
ag18
ag42
ag33
ag21
ag30
ag32
ag31
ag19
ag22
ag46
ag34
ag48
ag39
ag43
ag20
ag42
ag26
ag39
ag28
ag43
ag42
ag27
ag42
ag27
ag47
ag45
ag30
ag11
ag19
ag45
ag24
ag31
ag10
ag48
ag18
ag12
ag16
ag49
ag29
ag22
ag17
ag47
ag32
ag22
ag21
ag43
ag44
ag32
ag11
ag33
ag10
ag16
ag30
ag13
ag24
ag46
ag15
ag17
ag8
ag14
ag18
ag21
ag27
ag24
ag16
ag14
ag11
ag12
ag46
ag44
ag47
ag48
ag47
ag20
ag47
ag17
ag24
ag48
ag15
ag48
ag11
ag16
ag36
ag25
ag23
ag50
ag30
ag32
ag27
ag44
ag46
ag29
ag9
ag45
ag37
ag14
ag16
ag29
ag16
ag38
ag31
ag42
ag12
ag20
ag34
ag10
ag33
ag18
ag24
ag9
ag49
ag29
ag15
ag22
ag22
ag27
ag32
ag18
ag24
ag22
ag8
ag24
ag13
ag39
ag8
ag17
ag23
ag18
ag33
ag34
ag8
ag39
ag21
ag29
ag45
ag31
ag46
ag29
ag40
ag31
ag26
ag35
ag19
ag31
ag8
ag50
ag50
ag31
ag41
ag26
ag14
ag43
ag26
ag41
ag13
ag24
ag48
ag24
asS'y_train'
p51
(lp52
I3
aI2
aI3
aI2
aI1
aI2
aI3
aI2
aI3
aI1
aI3
aI2
aI3
aI1
aI1
aI1
aI1
aI1
aI1
aI2
aI3
aI2
aI1
aI1
aI3
aI3
aI1
aI3
aI2
aI2
aI3
aI1
aI3
aI1
aI2
aI1
aI3
aI3
aI2
aI2
aI2
aI1
aI2
aI2
aI3
aI2
aI1
aI3
aI2
aI1
aI2
aI2
aI1
aI1
aI3
aI3
aI1
aI3
aI1
aI1
aI2
aI2
aI2
aI3
aI2
aI2
aI3
aI1
aI2
aI1
aI2
aI3
aI2
aI1
aI3
aI2
aI3
aI3
aI3
aI1
aI3
aI1
aI1
aI3
aI1
aI1
aI1
aI3
aI3
aI3
aI1
aI3
aI2
aI2
aI2
aI2
aI1
aI1
aI1
aI1
aI2
aI1
aI1
aI1
aI3
aI3
aI2
aI1
aI1
aI3
aI3
aI2
aI3
aI1
aI2
aI2
aI2
aI3
aI3
aI2
aI3
aI1
aI1
aI1
aI2
aI2
aI3
aI3
aI2
aI3
aI2
aI1
aI2
aI1
aI1
aI2
aI3
aI1
aI1
aI2
aI2
aI2
aI2
aI1
aI2
aI1
aI1
aI1
aI2
aI1
aI2
aI2
aI1
aI2
aI3
aI3
aI2
aI2
aI2
aI1
aI1
aI2
aI2
aI1
aI3
aI3
aI3
aI2
aI1
aI2
aI3
aI3
aI2
aI2
aI2
aI2
aI2
aI3
aI2
aI2
aI3
aI2
aI1
aI1
aI3
aI3
aI1
aI1
aI2
aI3
aI3
aI2
aI3
aI3
aI3
aI3
aI3
aI1
aI2
aI1
aI3
aI3
aI2
aI2
aI2
aI2
aI1
aI3
aI1
aI2
aI3
aI1
aI2
aI2
aI1
aI1
aI1
aI1
aI1
aI3
aI1
aI3
aI1
aI1
aI3
aI1
aI1
aI2
aI2
aI1
aI2
aI1
aI1
aI3
aI2
aI2
aI1
aI2
aI1
aI3
aI3
aI1
aI2
aI1
aI2
aI2
aI2
aI2
aI1
aI2
aI2
aI2
aI2
aI3
aI2
aI2
aI3
aI2
aI3
aI3
aI2
aI2
aI3
aI2
aI3
aI2
aI3
aI1
aI2
aI3
aI1
aI3
aI1
aI2
aI2
aI1
aI2
aI2
aI3
aI2
aI2
aI3
aI1
aI2
aI1
aI3
aI2
aI3
aI2
aI1
aI1
aI1
aI2
aI1
aI2
aI3
aI3
aI2
aI2
aI3
aI2
aI3
aI3
aI2
aI2
aI3
aI2
aI3
aI1
aI1
aI1
aI2
aI1
aI2
aI2
aI3
aI2
aI1
aI2
aI1
aI1
aI3
aI1
aI2
aI3
aI1
aI3
aI1
aI1
aI3
aI3
aI3
aI2
aI3
aI2
aI3
aI2
aI2
aI3
aI1
aI2
aI2
aI1
aI3
aI3
aI2
aI3
aI1
aI1
aI2
aI2
aI1
aI3
aI1
aI2
aI3
aI2
aI3
aI3
aI2
aI1
aI3
aI2
aI3
aI2
aI1
aI1
aI3
aI2
aI1
aI3
aI3
aI2
aI2
aI3
aI1
aI2
aI1
aI2
aI1
aI1
aI2
aI3
aI2
aI1
aI1
aI3
aI3
aI2
aI3
aI3
aI3
aI3
aI1
aI3
aI3
aI2
aI2
aI3
aI2
aI2
aI1
aI3
aI2
aI2
aI2
aI1
aI2
aI2
aI2
aI1
aI1
aI3
aI3
aI2
aI1
aI3
aI1
aI2
aI3
aI3
aI2
aI2
aI2
aI1
aI1
aI3
aI1
aI3
aI1
aI3
aI2
aI2
aI3
aI1
aI3
aI2
aI2
aI2
aI1
aI1
aI1
aI1
aI1
aI1
aI3
aI3
aI2
aI3
aI2
aI3
aI3
aI1
aI2
aI1
aI1
aI3
aI2
aI2
aI2
aI2
aI1
aI3
aI1
aI1
aI2
aI3
aI1
aI1
aI2
aI3
aI1
aI1
aI1
aI1
aI1
aI1
aI3
aI2
aI1
aI2
aI3
aI1
aI2
aI3
aI3
aI1
aI3
aI1
aI2
aI2
aI3
aI1
aI3
aI2
aI3
aI3
aI1
aI1
aI3
aI3
aI2
aI3
aI1
aI3
aI1
aI3
aI2
aI2
aI3
aI1
aI1
aI2
aI3
aI3
aI3
aI2
aI2
aI1
aI2
aI2
aI2
aI3
aI2
aI3
aI1
aI2
aI1
aI1
aI1
aI1
aI1
aI1
aI1
aI2
aI3
aI2
aI1
aI3
aI2
aI2
aI1
aI2
aI3
aI2
aI3
aI2
aI2
aI2
aI2
aI3
aI2
aI3
aI2
aI2
aI2
aI2
aI1
aI2
aI3
aI1
aI3
aI1
aI3
aI2
aI2
aI2
aI3
aI1
aI3
aI3
aI2
aI2
aI2
aI1
aI1
aI3
aI1
aI1
aI3
aI1
aI1
aI2
aI1
aI1
aI3
aI2
aI2
aI3
aI3
aI1
aI3
aI3
aI3
aI1
aI3
aI3
aI3
aI2
aI2
aI2
aI3
aI3
aI1
aI3
aI1
aI2
aI2
aI2
aI2
aI1
aI2
aI2
aI1
aI1
aI3
aI3
aI2
aI3
aI2
aI2
aI3
aI2
aI2
aI2
aI2
aI3
aI2
aI2
aI3
aI3
aI2
aI2
aI2
aI1
aI2
aI1
aI2
aI2
aI1
aI1
aI1
aI2
aI3
aI3
aI2
aI1
aI3
aI1
aI3
aI3
aI3
aI3
aI2
aI3
aI1
aI2
aI3
aI3
aI1
aI1
aI2
aI3
aI2
aI1
aI2
aI2
aI2
aI2
aI2
aI3
aI1
aI3
aI3
aI3
aI2
aI2
aI3
aI1
aI1
aI2
aI2
aI1
aI3
aI3
aI2
aI3
aI1
aI1
aI2
aI3
aI2
aI1
aI1
aI2
aI2
aI1
aI3
aI3
aI1
aI3
aI3
aI3
aI3
aI2
aI3
aI3
aI1
aI1
aI1
aI1
aI1
aI1
aI1
aI2
aI2
aI1
aI1
aI2
aI1
aI1
aI3
aI2
aI2
aI1
aI3
aI1
aI1
aI2
aI1
aI3
aI2
aI1
aI1
aI1
aI1
aI2
aI3
aI2
aI3
aI2
aI3
aI2
aI2
aI1
aI2
aI1
aI2
aI2
aI1
aI3
aI3
aI2
aI1
aI2
aI2
aI2
aI3
aI3
aI2
aI2
aI3
aI1
aI2
aI1
aI2
aI1
aI1
aI3
aI1
aI3
aI2
aI3
aI3
aI1
aI2
aI3
aI2
aI2
aI2
aI3
aI2
aI3
aI1
aI3
aI1
aI3
aI2
aI1
aI1
aI3
aI1
aI3
aI3
aI2
aI3
aI2
aI1
aI1
aI3
aI1
aI3
aI1
aI3
aI1
aI1
aI3
aI1
aI2
aI1
aI1
aI2
aI3
aI1
aI1
aI2
aI1
aI3
aI3
aI1
aI2
aI1
aI2
aI3
aI3
aI1
aI1
aI3
aI1
aI1
aI1
aI3
aI2
aI1
aI1
aI1
aI1
aI2
aI3
aI3
aI1
aI2
aI3
aI3
aI2
aI3
aI1
aI1
aI2
aI1
aI1
aI1
aI3
aI1
aI3
aI1
aI1
aI1
aI1
aI2
aI1
aI1
aI1
aI2
aI3
aI1
aI1
aI3
aI3
aI3
aI3
aI2
aI2
aI3
aI2
aI1
aI3
aI3
aI2
aI2
aI2
aI1
aI3
aI1
aI1
aI3
aI1
aI1
aI1
aI1
aI3
aI1
aI3
aI1
aI3
aI2
aI3
aI1
aI2
aI3
aI3
aI1
aI2
aI3
aI3
aI2
aI3
aI3
aI3
aI1
aI2
aI2
aI3
aI1
aI3
aI3
aI2
aI3
aI3
aI1
aI3
aI3
aI2
aI1
aI2
aI1
aI3
aI2
aI1
aI3
aI1
aI2
aI3
aI3
aI2
aI1
aI2
aI3
aI3
aI1
aI3
aI3
aI2
aI3
aI3
aI3
aI1
aI2
aI2
aI3
aI1
aI2
aI2
aI1
aI1
aI3
aI3
aI2
aI3
aI1
aI1
aI2
aI3
aI1
aI1
aI2
aI2
aI2
aI1
aI3
aI1
aI1
aI3
aI2
aI2
aI3
aI3
aI2
aI3
aI1
aI1
aI3
aI1
aI2
aI2
aI2
aI3
aI2
aI1
aI1
aI3
aI1
aI2
aI1
aI2
aI3
aI1
aI3
aI3
aI2
aI1
aI3
aI1
aI3
aI2
aI2
aI2
aI3
aI3
aI1
aI2
aI3
aI3
aI3
aI3
aI2
aI1
aI3
aI2
aI3
aI2
aI3
aI3
aI3
aI3
aI3
aI1
aI3
aI1
aI3
aI2
aI2
aI3
aI3
aI3
aI3
aI1
aI2
aI1
aI1
aI2
aI2
aI2
aI1
aI3
aI1
aI1
aI2
aI2
aI2
aI1
aI3
aI3
aI1
aI3
aI2
aI1
aI3
aI2
aI1
aI3
aI3
aI2
aI3
aI3
aI1
aI3
aI2
aI2
aI3
aI3
aI1
aI2
aI2
aI1
aI3
aI1
aI1
aI1
aI3
aI3
aI2
aI1
aI1
aI2
aI3
aI2
aI3
aI1
aI1
aI1
aI2
aI1
aI2
aI1
aI2
aI2
aI1
aI3
aI2
aI2
aI3
aI2
aI3
aI3
aI1
aI2
aI2
aI3
aI1
aI2
aI2
aI3
aI2
aI3
aI1
aI3
aI2
aI1
aI1
aI1
aI3
aI3
aI1
aI1
aI2
aI2
aI3
aI2
aI1
aI3
aI3
aI2
aI2
aI2
aI1
aI2
aI1
aI3
aI3
aI3
aI1
aI3
aI2
aI3
aI3
aI2
aI1
aI1
aI2
aI3
aI2
aI3
aI1
aI3
aI1
aI2
aI2
aI2
aI2
aI2
aI3
aI3
aI3
aI1
aI2
aI2
aI3
aI3
aI2
aI1
aI1
aI2
aI1
aI1
aI3
aI3
aI1
aI3
aI3
aI2
aI2
aI1
aI1
aI1
aI3
aI1
aI3
aI2
aI2
aI2
aI1
aI2
aI1
aI1
aI3
aI3
aI3
aI2
aI1
aI3
aI2
aI2
aI1
aI3
aI1
aI1
aI3
aI1
aI1
aI3
aI1
aI1
aI1
aI1
aI2
aI1
aI1
aI3
aI2
aI2
aI2
aI3
aI2
aI3
aI2
aI2
aI2
aI1
aI2
aI3
aI2
aI2
aI1
aI2
aI2
aI2
aI2
asS'words'
p53
(lp54
Va
p55
aValt
p56
aVand
p57
aVas
p58
aVat
p59
aVattribut
p60
aVcal
p61
aVchang
p62
aVcolumn
p63
aVcre
p64
aVfield
p65
aVfrom
p66
aVhav
p67
aVin
p68
aVinsert
p69
aVinto
p70
aVmak
p71
aVnam
p72
aVnew
p73
aVobtain
p74
aVof
p75
aVplac
p76
aVput
p77
aVrenam
p78
aVstream
p79
aVtak
p80
aVthe
p81
aVtitl
p82
aVto
p83
aVvalu
p84
aVvary
p85
aVwith
p86
as.