(dp0
S'intents'
p1
(lp2
VProjection
p3
aVRename
p4
aVStream definition
p5
asS'x_train'
p6
(lp7
(lp8
I0
aI0
aI1
aI0
aI0
aI0
aI0
aI0
aI0
aI0
aI1
aI1
aI0
aI0
aI0
aI0
aI0
aI0
aI0
aI0
aI0
aI0
aI1
aI0
aI1
aI1
aI1
aI0
aI1
aI0
aI0
aI0
aa(lp9
I0
aI0
aI0
aI1
aI0
aI0
aI1
aI1
aI0
aI0
aI0
aI0
aI0
aI0
aI0
aI0
aI0
aI0
aI0
aI0
aI0
aI0
aI0
aI0
aI1
aI0
aI1
aI0
aI0
aI0
aI0
aI0
aa(lp10
I0
aI0
aI1
aI0
aI0
aI0
aI0
aI0
aI0
aI0
aI1
aI1
aI0
aI0
aI0
aI0
aI0
aI0
aI0
aI1
aI0
aI0
aI1
aI0
aI1
aI0
aI1
aI0
aI1
aI0
aI0
aI0
aa(lp11
I0
aI0
aI0
aI0
aI0
aI0
aI0
aI0
aI0
aI0
aI0
aI1
aI0
aI1
aI0
aI0
aI0
aI0
aI0
aI1
aI0
aI1
aI0
aI0
aI1
aI0
aI1
aI0
aI0
aI0
aI1
aI0
aa(lp12
I0
aI0
aI0
aI0
aI0
aI0
aI0
aI0
aI0
aI0
aI0
aI0
aI0
aI0
aI0
aI0
aI0
aI1
aI0
aI0
aI0
aI0
aI0
aI1
aI1
aI0
aI1
aI0
aI0
aI0
aI0
aI1
aa(lp13
I1
aI0
aI0
aI0
aI0
aI1
aI0
aI0
aI0
aI0
aI0
aI0
aI1
aI0
aI0
aI0
aI1
aI1
aI1
aI0
aI0
aI0
aI0
aI0
aI1
aI0
aI0
aI0
aI0
aI0
aI0
aI0
aa(lp14
I1
aI0
aI0
aI0
aI0
aI0
aI0
aI0
aI0
aI1
aI1
aI0
aI1
aI0
aI0
aI0
aI0
aI1
aI1
aI0
aI0
aI0
aI0
aI0
aI1
aI0
aI0
aI0
aI0
aI0
aI0
aI0
aa(lp15
I1
aI0
aI0
aI0
aI0
aI0
aI0
aI0
aI0
aI1
aI0
aI0
aI0
aI0
aI0
aI0
aI0
aI1
aI1
aI0
aI0
aI0
aI0
aI0
aI1
aI0
aI0
aI0
aI0
aI1
aI0
aI1
aa(lp16
I1
aI0
aI0
aI0
aI0
aI0
aI1
aI0
aI0
aI1
aI1
aI0
aI1
aI0
aI0
aI0
aI0
aI0
aI1
aI0
aI0
aI0
aI0
aI0
aI1
aI0
aI0
aI0
aI0
aI0
aI0
aI0
aa(lp17
I1
aI0
aI0
aI0
aI0
aI0
aI1
aI0
aI1
aI0
aI0
aI0
aI0
aI0
aI0
aI0
aI1
aI0
aI1
aI0
aI0
aI0
aI0
aI0
aI1
aI0
aI0
aI0
aI0
aI0
aI0
aI1
aa(lp18
I1
aI0
aI0
aI0
aI0
aI0
aI0
aI0
aI1
aI1
aI0
aI0
aI0
aI0
aI0
aI0
aI0
aI1
aI1
aI0
aI0
aI0
aI0
aI0
aI1
aI0
aI0
aI0
aI0
aI0
aI0
aI1
aa(lp19
I1
aI0
aI0
aI0
aI0
aI0
aI1
aI0
aI0
aI0
aI0
aI0
aI1
aI0
aI0
aI0
aI1
aI0
aI1
aI0
aI0
aI0
aI0
aI0
aI1
aI0
aI0
aI0
aI0
aI1
aI0
aI0
aa(lp20
I0
aI0
aI0
aI0
aI0
aI0
aI0
aI0
aI0
aI0
aI0
aI0
aI0
aI0
aI0
aI0
aI0
aI0
aI0
aI0
aI0
aI0
aI0
aI1
aI1
aI0
aI1
aI1
aI0
aI0
aI0
aI1
aa(lp21
I0
aI0
aI0
aI1
aI0
aI0
aI1
aI0
aI0
aI0
aI0
aI0
aI0
aI0
aI0
aI0
aI0
aI0
aI0
aI0
aI0
aI0
aI0
aI1
aI1
aI0
aI1
aI0
aI0
aI0
aI0
aI0
aa(lp22
I0
aI0
aI1
aI0
aI0
aI0
aI0
aI0
aI0
aI0
aI1
aI1
aI0
aI0
aI1
aI1
aI0
aI0
aI0
aI0
aI0
aI0
aI0
aI0
aI1
aI1
aI1
aI0
aI0
aI0
aI0
aI0
aag21
a(lp23
I0
aI0
aI0
aI0
aI0
aI0
aI1
aI1
aI0
aI0
aI0
aI0
aI0
aI0
aI0
aI0
aI0
aI0
aI0
aI0
aI0
aI0
aI0
aI0
aI1
aI0
aI1
aI0
aI1
aI0
aI0
aI0
aa(lp24
I1
aI0
aI0
aI0
aI0
aI0
aI0
aI0
aI0
aI1
aI0
aI0
aI1
aI0
aI0
aI0
aI0
aI1
aI1
aI0
aI0
aI0
aI0
aI0
aI1
aI0
aI0
aI0
aI0
aI1
aI0
aI0
aa(lp25
I0
aI0
aI0
aI0
aI0
aI0
aI0
aI1
aI0
aI0
aI0
aI0
aI0
aI0
aI0
aI0
aI0
aI0
aI0
aI0
aI0
aI0
aI0
aI0
aI1
aI0
aI1
aI1
aI0
aI0
aI0
aI1
aa(lp26
I0
aI0
aI0
aI1
aI0
aI0
aI0
aI0
aI0
aI0
aI0
aI0
aI0
aI0
aI0
aI0
aI0
aI1
aI0
aI0
aI0
aI0
aI0
aI1
aI1
aI0
aI1
aI0
aI0
aI0
aI0
aI0
aag11
a(lp27
I1
aI0
aI0
aI0
aI0
aI0
aI1
aI0
aI1
aI1
aI0
aI0
aI1
aI0
aI0
aI0
aI0
aI0
aI1
aI0
aI0
aI0
aI0
aI0
aI1
aI0
aI0
aI0
aI0
aI0
aI0
aI0
aag20
ag14
ag15
a(lp28
I0
aI0
aI0
aI0
aI1
aI0
aI0
aI0
aI0
aI0
aI0
aI0
aI0
aI1
aI0
aI0
aI0
aI0
aI0
aI0
aI0
aI1
aI0
aI0
aI0
aI0
aI0
aI0
aI0
aI0
aI0
aI0
aa(lp29
I0
aI0
aI0
aI1
aI0
aI0
aI0
aI0
aI0
aI0
aI0
aI0
aI0
aI0
aI0
aI0
aI1
aI1
aI1
aI0
aI0
aI0
aI0
aI0
aI0
aI0
aI1
aI0
aI0
aI0
aI0
aI0
aag16
a(lp30
I0
aI0
aI1
aI0
aI0
aI1
aI0
aI0
aI0
aI0
aI0
aI1
aI0
aI0
aI1
aI1
aI0
aI0
aI0
aI0
aI0
aI0
aI0
aI0
aI1
aI1
aI1
aI0
aI0
aI0
aI0
aI0
aa(lp31
I1
aI0
aI0
aI0
aI0
aI0
aI0
aI0
aI0
aI0
aI1
aI0
aI0
aI0
aI0
aI0
aI1
aI1
aI1
aI0
aI0
aI0
aI0
aI0
aI1
aI0
aI0
aI0
aI0
aI0
aI0
aI1
aa(lp32
I1
aI0
aI0
aI0
aI0
aI1
aI0
aI0
aI0
aI0
aI0
aI0
aI0
aI0
aI0
aI0
aI1
aI1
aI1
aI0
aI0
aI0
aI0
aI0
aI1
aI0
aI0
aI0
aI0
aI0
aI0
aI1
aag12
a(lp33
I0
aI0
aI0
aI0
aI0
aI0
aI1
aI1
aI0
aI0
aI0
aI0
aI0
aI0
aI0
aI0
aI0
aI1
aI0
aI0
aI0
aI0
aI0
aI0
aI1
aI0
aI1
aI0
aI0
aI0
aI0
aI1
aag33
ag18
ag18
ag22
ag29
ag21
ag33
a(lp34
I1
aI0
aI0
aI0
aI0
aI0
aI1
aI0
aI0
aI0
aI0
aI0
aI0
aI0
aI0
aI0
aI1
aI0
aI1
aI0
aI0
aI0
aI0
aI0
aI1
aI0
aI0
aI0
aI0
aI1
aI0
aI1
aag18
ag28
a(lp35
I0
aI0
aI1
aI0
aI0
aI0
aI0
aI0
aI0
aI0
aI0
aI1
aI0
aI0
aI0
aI0
aI0
aI0
aI0
aI0
aI0
aI0
aI1
aI0
aI1
aI1
aI1
aI0
aI1
aI0
aI1
aI0
aag16
ag35
ag35
ag31
ag24
ag22
ag19
a(lp36
I0
aI1
aI0
aI0
aI0
aI0
aI0
aI0
aI0
aI0
aI0
aI0
aI0
aI0
aI0
aI0
aI0
aI1
aI0
aI0
aI1
aI0
aI0
aI0
aI1
aI0
aI1
aI0
aI1
aI0
aI0
aI0
aa(lp37
I0
aI0
aI1
aI0
aI0
aI0
aI0
aI0
aI0
aI0
aI1
aI1
aI0
aI0
aI1
aI1
aI0
aI0
aI0
aI1
aI0
aI0
aI0
aI0
aI1
aI0
aI1
aI0
aI0
aI0
aI0
aI0
aag10
a(lp38
I0
aI0
aI0
aI0
aI0
aI0
aI0
aI0
aI0
aI0
aI0
aI1
aI0
aI1
aI0
aI0
aI0
aI0
aI0
aI0
aI0
aI1
aI0
aI0
aI0
aI0
aI0
aI0
aI0
aI0
aI0
aI0
aag11
ag14
a(lp39
I0
aI0
aI1
aI0
aI0
aI0
aI0
aI0
aI0
aI0
aI0
aI1
aI0
aI0
aI0
aI0
aI0
aI0
aI0
aI1
aI0
aI0
aI1
aI0
aI1
aI0
aI1
aI0
aI1
aI0
aI1
aI0
aag34
a(lp40
I0
aI0
aI1
aI0
aI0
aI0
aI0
aI0
aI0
aI0
aI0
aI1
aI0
aI0
aI1
aI1
aI0
aI0
aI0
aI1
aI0
aI0
aI0
aI0
aI1
aI0
aI1
aI0
aI0
aI0
aI1
aI0
aa(lp41
I0
aI0
aI0
aI1
aI0
aI0
aI0
aI0
aI0
aI0
aI0
aI0
aI0
aI0
aI0
aI0
aI0
aI0
aI0
aI0
aI0
aI0
aI0
aI1
aI1
aI0
aI1
aI1
aI0
aI0
aI0
aI0
aag12
ag22
ag11
ag11
ag35
ag8
ag35
ag37
ag11
a(lp42
I0
aI1
aI0
aI0
aI0
aI0
aI0
aI0
aI0
aI0
aI0
aI0
aI0
aI0
aI0
aI0
aI0
aI0
aI0
aI0
aI1
aI0
aI0
aI0
aI1
aI0
aI1
aI1
aI1
aI0
aI0
aI0
aag21
ag18
ag16
ag9
ag31
a(lp43
I0
aI0
aI0
aI0
aI0
aI0
aI0
aI0
aI0
aI0
aI0
aI0
aI0
aI0
aI0
aI0
aI0
aI1
aI0
aI0
aI0
aI0
aI0
aI1
aI1
aI0
aI1
aI1
aI0
aI0
aI0
aI1
aag31
ag37
ag35
ag10
ag25
ag25
ag36
ag11
ag21
ag26
a(lp44
I0
aI0
aI1
aI0
aI0
aI0
aI0
aI0
aI0
aI0
aI0
aI1
aI0
aI0
aI1
aI1
aI0
aI0
aI0
aI0
aI0
aI0
aI0
aI0
aI1
aI1
aI1
aI0
aI0
aI0
aI1
aI0
aag19
ag35
a(lp45
I0
aI0
aI1
aI0
aI0
aI1
aI0
aI0
aI0
aI0
aI0
aI1
aI0
aI0
aI1
aI1
aI0
aI0
aI0
aI1
aI0
aI0
aI0
aI0
aI1
aI0
aI1
aI0
aI0
aI0
aI0
aI0
aag34
ag22
a(lp46
I1
aI0
aI0
aI0
aI0
aI0
aI0
aI0
aI1
aI0
aI0
aI0
aI1
aI0
aI0
aI0
aI1
aI1
aI1
aI0
aI0
aI0
aI0
aI0
aI1
aI0
aI0
aI0
aI0
aI0
aI0
aI0
aag17
ag9
ag20
a(lp47
I0
aI0
aI0
aI0
aI0
aI0
aI0
aI0
aI0
aI0
aI0
aI1
aI0
aI1
aI0
aI0
aI0
aI0
aI0
aI0
aI0
aI1
aI0
aI0
aI1
aI1
aI1
aI0
aI0
aI0
aI1
aI0
aag32
ag39
ag31
ag24
ag23
ag23
ag8
a(lp48
I0
aI0
aI0
aI0
aI0
aI0
aI0
aI1
aI0
aI0
aI0
aI0
aI0
aI0
aI0
aI0
aI0
aI1
aI0
aI0
aI0
aI0
aI0
aI0
aI1
aI0
aI1
aI1
aI0
aI0
aI0
aI1
aag9
ag15
ag32
ag11
ag43
ag23
ag48
ag10
ag9
ag48
ag32
ag8
ag11
ag43
ag9
ag14
ag29
ag28
ag32
ag30
ag43
ag47
ag19
ag31
ag25
ag19
ag9
ag35
ag17
ag20
ag16
ag18
ag29
ag40
a(lp49
I1
aI0
aI0
aI0
aI0
aI1
aI1
aI0
aI0
aI0
aI0
aI0
aI1
aI0
aI0
aI0
aI1
aI0
aI1
aI0
aI0
aI0
aI0
aI0
aI1
aI0
aI0
aI0
aI0
aI0
aI0
aI0
aag28
ag24
ag24
ag24
ag36
ag16
ag13
ag33
ag44
ag39
ag13
ag29
ag36
ag40
ag12
ag20
ag26
ag9
ag25
ag46
ag45
ag8
ag20
ag42
ag31
ag45
ag43
ag20
ag21
ag31
ag46
ag32
ag20
ag18
ag16
ag25
ag40
ag31
ag14
ag37
ag27
ag47
ag21
ag23
ag40
ag34
ag11
ag34
ag23
ag19
ag33
ag8
ag15
ag22
ag29
ag30
ag21
ag24
ag11
ag39
ag20
ag37
ag41
ag33
a(lp50
I0
aI0
aI0
aI0
aI0
aI0
aI0
aI0
aI0
aI0
aI0
aI0
aI0
aI0
aI0
aI0
aI1
aI1
aI1
aI0
aI1
aI0
aI0
aI0
aI0
aI0
aI1
aI0
aI0
aI0
aI0
aI0
aag22
ag17
ag30
ag43
ag25
ag25
ag19
ag44
ag43
ag36
ag32
ag38
ag48
ag23
ag38
ag21
ag14
ag40
ag9
ag20
ag47
ag46
ag14
ag39
ag10
ag16
ag9
ag32
ag49
ag37
ag40
ag46
ag19
ag17
ag19
ag32
ag43
ag49
ag48
ag10
ag19
ag28
ag24
ag29
ag24
ag23
ag31
ag15
ag28
ag46
ag36
ag21
ag47
ag17
ag33
ag22
ag13
ag39
ag37
ag39
ag23
ag28
ag33
ag35
ag21
ag32
ag27
ag33
ag15
ag39
ag13
ag12
ag16
ag10
ag13
ag45
ag37
ag40
ag31
ag13
ag8
ag14
ag12
ag17
ag48
ag41
ag31
ag50
ag18
ag29
ag41
ag38
ag50
ag28
ag21
ag14
ag23
ag42
ag44
ag40
ag48
ag47
ag14
ag29
ag15
ag31
ag46
ag24
ag45
ag12
ag14
ag9
ag35
ag9
ag26
ag32
ag37
ag34
ag41
ag44
ag25
ag23
ag36
ag18
ag14
ag35
ag8
ag43
ag14
ag21
ag33
ag36
ag13
ag26
ag35
ag47
ag20
ag42
ag41
ag32
ag40
ag42
ag44
ag16
ag44
ag22
ag32
ag46
ag24
ag32
ag20
ag41
ag46
ag29
ag49
ag27
ag13
ag41
ag43
ag36
ag20
ag47
ag27
ag50
ag40
ag46
ag8
ag30
ag49
ag32
ag10
ag11
ag29
ag15
ag38
ag40
ag35
ag43
ag10
ag29
ag33
ag38
ag15
ag47
ag28
ag21
ag45
ag36
ag45
ag24
ag16
ag13
ag23
ag27
ag21
ag50
ag44
ag50
ag14
ag14
ag9
ag18
ag46
ag50
ag50
ag11
ag15
ag32
ag42
ag17
ag47
ag23
ag10
ag21
ag50
ag45
ag25
ag44
ag30
ag12
ag12
ag12
ag29
ag24
ag39
ag37
ag34
ag8
ag37
ag41
ag43
ag8
ag36
ag31
ag49
ag16
ag38
ag30
ag16
ag41
ag44
ag15
ag12
ag11
ag19
ag22
ag19
ag44
ag39
ag24
ag28
ag30
ag23
ag42
ag12
ag47
ag10
ag39
ag22
ag19
ag35
ag46
ag40
ag30
ag44
ag21
ag42
ag26
ag36
ag21
ag24
ag29
ag8
ag40
ag34
ag10
ag15
ag47
ag8
ag47
ag47
ag11
ag23
ag50
ag36
ag15
ag10
ag23
ag35
ag12
ag50
ag12
ag26
ag42
ag13
ag9
ag47
ag45
ag45
ag28
ag20
ag48
ag31
ag24
ag23
ag34
ag41
ag11
ag10
ag29
ag29
ag39
ag49
ag14
ag34
ag9
ag33
ag45
ag48
ag46
ag16
ag41
ag50
ag36
ag42
ag24
ag17
ag26
ag8
ag19
ag9
ag38
ag18
ag8
ag21
ag10
ag40
ag29
ag9
ag21
ag38
ag32
ag39
ag39
ag34
ag37
ag26
ag41
ag14
ag17
ag22
ag27
ag46
ag45
ag31
ag25
ag33
ag34
ag18
ag27
ag27
ag44
ag24
ag15
ag50
ag27
ag13
ag37
ag8
ag9
ag50
ag22
ag27
ag43
ag43
ag50
ag17
ag34
ag8
ag14
ag27
ag24
ag32
ag12
ag23
ag20
ag17
ag25
ag19
ag46
ag14
ag30
ag16
ag48
ag19
ag31
ag49
ag43
ag22
ag27
ag25
ag36
ag44
ag17
ag11
ag50
ag48
ag40
ag33
ag10
ag13
ag49
ag27
ag42
ag39
ag41
ag17
ag28
ag42
ag22
ag12
ag22
ag43
ag28
ag28
ag21
ag18
ag49
ag24
ag46
ag27
ag45
ag24
ag41
ag21
ag13
ag18
ag33
ag25
ag30
ag13
ag38
ag44
ag24
ag36
ag25
ag19
ag32
ag12
ag35
ag24
ag37
ag20
ag49
ag15
ag19
ag17
ag37
ag26
ag31
ag15
ag10
ag50
ag43
ag31
ag39
ag19
ag18
ag11
ag47
ag43
ag22
ag29
ag12
ag50
ag34
ag44
ag38
ag14
ag42
ag42
ag11
ag46
ag41
ag50
ag27
ag45
ag28
ag16
ag26
ag20
ag35
ag13
ag19
ag31
ag35
ag29
ag17
ag33
ag30
ag34
ag18
ag49
ag35
ag13
ag20
ag26
ag48
ag19
ag15
ag36
ag13
ag11
ag45
ag10
ag38
ag32
ag27
ag47
ag30
ag28
ag49
ag27
ag19
ag26
ag28
ag33
ag42
ag39
ag31
ag17
ag39
ag44
ag25
ag24
ag50
ag33
ag10
ag38
ag24
ag34
ag38
ag10
ag15
ag19
ag31
ag31
ag35
ag9
ag30
ag39
ag26
ag20
ag50
ag12
ag18
ag37
ag36
ag11
ag49
ag29
ag42
ag33
ag36
ag10
ag18
ag21
ag37
ag16
ag30
ag42
ag13
ag21
ag45
ag32
ag34
ag19
ag26
ag30
ag18
ag36
ag27
ag22
ag49
ag15
ag21
ag21
ag40
ag46
ag9
ag16
ag38
ag47
ag40
ag38
ag49
ag36
ag24
ag32
ag36
ag33
ag32
ag34
ag31
ag33
ag17
ag35
ag33
ag37
ag11
ag16
ag8
ag47
ag12
ag39
ag46
ag37
ag24
ag28
ag33
ag10
ag45
ag15
ag11
ag45
ag40
ag11
ag45
ag25
ag32
ag48
ag44
ag26
ag40
ag43
ag16
ag40
ag39
ag19
ag33
ag43
ag41
ag47
ag10
ag44
ag44
ag38
ag14
ag8
ag13
ag40
ag36
ag28
ag49
ag34
ag11
ag44
ag11
ag8
ag20
ag23
ag25
ag24
ag45
ag27
ag30
ag28
ag41
ag12
ag11
ag33
ag17
ag14
ag15
ag8
ag43
ag23
ag8
ag36
ag33
ag35
ag10
ag10
ag11
ag18
ag30
ag27
ag19
ag39
ag28
ag35
ag15
ag18
ag47
ag19
ag29
ag13
ag21
ag25
ag48
ag35
ag40
ag18
ag38
ag16
ag37
ag28
ag48
ag36
ag21
ag48
ag22
ag36
ag8
ag26
ag31
ag41
ag42
ag10
ag22
ag24
ag48
ag48
ag47
ag34
ag34
ag15
ag17
ag43
ag13
ag30
ag35
ag30
ag13
ag50
ag12
ag20
ag50
ag44
ag30
ag9
ag26
ag27
ag14
ag34
ag35
ag43
ag26
ag14
ag49
ag30
ag17
ag46
ag27
ag9
ag34
ag42
ag33
ag30
ag13
ag25
ag48
ag30
ag37
ag42
ag26
ag10
ag49
ag26
ag16
ag47
ag12
ag22
ag12
ag49
ag48
ag21
ag15
ag15
ag42
ag8
ag17
ag39
ag46
ag49
ag39
ag10
ag9
ag28
ag43
ag34
ag39
ag35
ag32
ag25
ag25
ag16
ag26
ag26
ag38
ag28
ag13
ag50
ag41
ag45
ag14
ag38
ag18
ag46
ag37
ag43
ag27
ag8
ag37
ag50
ag40
ag23
ag20
ag21
ag12
ag22
ag39
ag28
ag45
ag41
ag26
ag8
ag49
ag20
ag49
ag23
ag9
ag28
ag22
ag29
ag32
ag23
ag46
ag49
ag9
ag20
ag12
ag17
ag38
ag50
ag24
ag13
ag37
ag25
ag18
ag34
ag15
ag37
ag15
ag31
ag50
ag17
ag38
ag23
ag18
ag33
ag32
ag34
ag28
ag38
ag45
ag16
ag47
ag12
ag34
ag17
ag9
ag16
ag12
ag33
ag38
ag27
ag49
ag42
ag29
ag37
ag31
ag32
ag19
ag38
ag12
ag35
ag12
ag32
ag18
ag17
ag36
ag36
ag30
ag42
ag27
ag47
ag17
ag44
ag25
ag38
ag48
ag29
ag31
ag19
ag42
ag48
ag19
ag32
ag43
ag49
ag34
ag50
ag26
ag48
ag49
ag46
ag38
ag40
ag14
ag19
ag50
ag25
ag49
ag40
ag22
ag39
ag15
ag32
ag48
ag33
ag29
ag35
ag30
ag22
ag26
ag31
ag17
ag26
ag30
ag25
ag15
ag37
ag28
ag44
ag42
ag9
ag16
ag38
ag27
ag18
ag45
ag36
ag44
ag39
ag25
ag29
ag38
ag42
ag18
ag33
ag16
ag48
ag26
ag37
ag9
ag25
ag28
ag46
ag23
ag45
ag10
ag48
ag35
ag39
ag45
ag18
ag9
ag23
ag48
ag32
ag18
ag44
ag46
ag41
ag44
ag24
ag29
ag33
ag40
ag9
ag16
ag10
ag47
ag22
ag44
ag46
ag17
ag41
ag17
ag20
ag41
ag11
ag17
ag47
ag38
ag23
ag20
ag41
ag50
ag21
ag43
ag14
ag30
ag22
ag22
ag44
ag20
ag41
ag49
ag34
ag30
ag36
ag40
ag41
ag16
ag18
ag20
ag8
ag15
ag45
ag13
asS'y_train'
p51
(lp52
I3
aI2
aI3
aI3
aI2
aI1
aI1
aI1
aI1
aI1
aI1
aI1
aI2
aI2
aI3
aI2
aI2
aI1
aI2
aI2
aI3
aI1
aI2
aI1
aI1
aI3
aI2
aI1
aI3
aI1
aI1
aI2
aI2
aI2
aI1
aI1
aI3
aI2
aI2
aI2
aI1
aI1
aI3
aI3
aI1
aI3
aI3
aI1
aI1
aI3
aI1
aI2
aI3
aI3
aI3
aI3
aI1
aI3
aI1
aI3
aI2
aI2
aI3
aI3
aI3
aI3
aI3
aI3
aI3
aI3
aI2
aI2
aI1
aI1
aI2
aI1
aI2
aI1
aI3
aI3
aI3
aI2
aI2
aI2
aI3
aI2
aI2
aI3
aI1
aI3
aI3
aI1
aI3
aI1
aI1
aI2
aI2
aI3
aI1
aI3
aI1
aI1
aI2
aI2
aI3
aI2
aI2
aI1
aI1
aI3
aI2
aI2
aI2
aI3
aI2
aI2
aI1
aI3
aI3
aI2
aI2
aI1
aI2
aI3
aI1
aI3
aI2
aI3
aI1
aI1
aI2
aI1
aI2
aI3
aI1
aI2
aI1
aI1
aI2
aI3
aI1
aI3
aI1
aI1
aI1
aI2
aI1
aI1
aI2
aI3
aI3
aI1
aI2
aI2
aI3
aI2
aI2
aI2
aI2
aI2
aI1
aI3
aI3
aI2
aI2
aI1
aI3
aI2
aI2
aI2
aI1
aI1
aI1
aI2
aI1
aI1
aI2
aI3
aI1
aI1
aI3
aI1
aI3
aI2
aI2
aI3
aI1
aI3
aI1
aI2
aI1
aI2
aI3
aI1
aI3
aI2
aI3
aI2
aI1
aI3
aI3
aI2
aI3
aI2
aI2
aI2
aI3
aI1
aI3
aI2
aI2
aI2
aI1
aI3
aI2
aI2
aI1
aI3
aI2
aI2
aI3
aI2
aI1
aI3
aI2
aI2
aI3
aI1
aI1
aI3
aI3
aI1
aI2
aI1
aI1
aI3
aI3
aI1
aI1
aI1
aI1
aI1
aI2
aI1
aI2
aI3
aI1
aI3
aI1
aI2
aI1
aI2
aI1
aI1
aI3
aI1
aI2
aI2
aI3
aI1
aI2
aI3
aI1
aI3
aI3
aI3
aI2
aI3
aI2
aI3
aI2
aI1
aI1
aI2
aI1
aI3
aI1
aI2
aI1
aI3
aI1
aI3
aI3
aI3
aI1
aI1
aI3
aI1
aI2
aI1
aI2
aI2
aI1
aI2
aI1
aI2
aI2
aI3
aI2
aI3
aI2
aI1
aI2
aI2
aI3
aI3
aI2
aI3
aI1
aI2
aI1
aI1
aI1
aI1
aI3
aI2
aI1
aI2
aI3
aI2
aI2
aI1
aI3
aI1
aI2
aI3
aI2
aI2
aI2
aI1
aI1
aI3
aI3
aI2
aI1
aI2
aI2
aI2
aI1
aI2
aI3
aI3
aI2
aI2
aI2
aI1
aI3
aI2
aI3
aI1
aI3
aI3
aI1
aI1
aI1
aI1
aI2
aI2
aI1
aI2
aI1
aI1
aI1
aI2
aI2
aI2
aI2
aI3
aI1
aI2
aI3
aI1
aI3
aI3
aI1
aI1
aI3
aI3
aI2
aI1
aI3
aI3
aI3
aI2
aI3
aI2
aI2
aI3
aI1
aI3
aI3
aI2
aI3
aI2
aI3
aI1
aI1
aI1
aI2
aI1
aI2
aI2
aI3
aI2
aI1
aI1
aI2
aI1
aI1
aI2
aI2
aI3
aI1
aI1
aI2
aI1
aI3
aI2
aI3
aI2
aI2
aI3
aI2
aI3
aI3
aI2
aI2
aI2
aI2
aI1
aI3
aI3
aI1
aI3
aI3
aI2
aI2
aI3
aI2
aI1
aI1
aI1
aI3
aI3
aI1
aI2
aI3
aI1
aI2
aI3
aI1
aI3
aI1
aI3
aI3
aI1
aI3
aI3
aI2
aI2
aI2
aI3
aI3
aI3
aI3
aI1
aI3
aI1
aI3
aI3
aI3
aI2
aI2
aI2
aI2
aI2
aI1
aI2
aI3
aI3
aI1
aI3
aI1
aI3
aI3
aI3
aI3
aI3
aI2
aI2
aI2
aI1
aI3
aI2
aI3
aI2
aI2
aI2
aI2
aI2
aI1
aI2
aI3
aI3
aI3
aI3
aI2
aI2
aI1
aI1
aI2
aI1
aI2
aI3
aI3
aI2
aI2
aI3
aI1
aI1
aI1
aI2
aI2
aI3
aI2
aI1
aI1
aI2
aI2
aI2
aI2
aI1
aI1
aI2
aI3
aI1
aI2
aI3
aI1
aI3
aI2
aI3
aI3
aI2
aI2
aI2
aI3
aI1
aI3
aI3
aI1
aI3
aI2
aI2
aI1
aI1
aI3
aI1
aI1
aI3
aI1
aI2
aI2
aI1
aI1
aI1
aI1
aI3
aI1
aI1
aI2
aI1
aI1
aI3
aI3
aI2
aI2
aI3
aI1
aI2
aI2
aI2
aI1
aI1
aI3
aI1
aI1
aI1
aI1
aI2
aI2
aI2
aI1
aI2
aI1
aI1
aI1
aI3
aI1
aI2
aI1
aI1
aI1
aI2
aI3
aI1
aI2
aI2
aI3
aI1
aI3
aI2
aI2
aI3
aI2
aI3
aI1
aI1
aI1
aI2
aI3
aI2
aI1
aI3
aI2
aI3
aI2
aI3
aI2
aI3
aI3
aI2
aI1
aI1
aI1
aI1
aI1
aI3
aI1
aI2
aI2
aI1
aI1
aI2
aI2
aI3
aI1
aI3
aI3
aI1
aI2
aI2
aI1
aI1
aI2
aI3
aI1
aI3
aI2
aI1
aI1
aI1
aI1
aI3
aI2
aI1
aI1
aI3
aI2
aI2
aI1
aI3
aI1
aI1
aI3
aI3
aI2
aI3
aI2
aI2
aI2
aI1
aI3
aI3
aI1
aI2
aI2
aI3
aI1
aI2
aI2
aI1
aI3
aI3
aI1
aI2
aI2
aI3
aI1
aI1
aI1
aI3
aI2
aI1
aI2
aI3
aI1
aI1
aI1
aI3
aI1
aI2
aI2
aI2
aI1
aI1
aI2
aI1
aI3
aI3
aI3
aI3
aI1
aI1
aI3
aI3
aI3
aI1
aI1
aI1
aI2
aI3
aI2
aI2
aI3
aI1
aI1
aI3
aI3
aI2
aI1
aI2
aI2
aI3
aI3
aI1
aI1
aI3
aI3
aI1
aI1
aI1
aI1
aI3
aI2
aI3
aI3
aI2
aI2
aI2
aI2
aI1
aI3
aI2
aI3
aI1
aI2
aI2
aI2
aI2
aI3
aI1
aI2
aI3
aI1
aI3
aI2
aI1
aI2
aI3
aI1
aI1
aI1
aI2
aI3
aI1
aI2
aI1
aI3
aI1
aI1
aI2
aI2
aI3
aI1
aI2
aI1
aI3
aI3
aI3
aI3
aI1
aI2
aI1
aI1
aI2
aI2
aI1
aI1
aI1
aI2
aI1
aI3
aI2
aI3
aI3
aI1
aI3
aI3
aI2
aI3
aI1
aI3
aI1
aI3
aI2
aI3
aI3
aI1
aI3
aI3
aI3
aI3
aI3
aI2
aI1
aI2
aI3
aI2
aI3
aI2
aI1
aI3
aI3
aI1
aI2
aI2
aI2
aI3
aI3
aI3
aI3
aI3
aI1
aI3
aI1
aI3
aI2
aI3
aI1
aI1
aI3
aI3
aI3
aI3
aI2
aI2
aI2
aI1
aI3
aI1
aI3
aI3
aI2
aI2
aI3
aI2
aI1
aI1
aI1
aI3
aI2
aI2
aI3
aI2
aI2
aI3
aI3
aI3
aI3
aI1
aI3
aI1
aI1
aI3
aI3
aI3
aI1
aI1
aI3
aI1
aI2
aI1
aI2
aI2
aI2
aI3
aI3
aI1
aI3
aI1
aI3
aI3
aI2
aI2
aI2
aI2
aI3
aI2
aI3
aI2
aI1
aI2
aI2
aI3
aI3
aI1
aI2
aI2
aI3
aI1
aI1
aI1
aI1
aI2
aI1
aI3
aI3
aI3
aI1
aI2
aI2
aI2
aI2
aI3
aI3
aI2
aI2
aI1
aI1
aI1
aI3
aI2
aI2
aI1
aI1
aI3
aI1
aI1
aI1
aI2
aI1
aI2
aI2
aI3
aI1
aI2
aI2
aI3
aI3
aI2
aI2
aI3
aI1
aI2
aI1
aI3
aI2
aI3
aI2
aI1
aI2
aI2
aI1
aI1
aI2
aI3
aI1
aI3
aI1
aI1
aI3
aI3
aI2
aI3
aI2
aI1
aI3
aI3
aI1
aI2
aI2
aI1
aI2
aI2
aI3
aI3
aI1
aI2
aI2
aI3
aI1
aI3
aI1
aI1
aI3
aI2
aI1
aI3
aI3
aI2
aI3
aI2
aI2
aI2
aI2
aI3
aI3
aI3
aI3
aI2
aI2
aI3
aI1
aI2
aI1
aI2
aI2
aI3
aI3
aI2
aI1
aI2
aI1
aI1
aI2
aI2
aI2
aI1
aI3
aI2
aI1
aI1
aI3
aI2
aI1
aI1
aI1
aI3
aI1
aI1
aI2
aI1
aI3
aI2
aI1
aI2
aI1
aI1
aI3
aI3
aI3
aI1
aI3
aI2
aI1
aI1
aI2
aI1
aI2
aI2
aI3
aI1
aI1
aI2
aI2
aI3
aI1
aI1
aI1
aI3
aI2
aI3
aI2
aI1
aI1
aI1
aI2
aI2
aI3
aI2
aI1
aI3
aI1
aI3
aI2
aI3
aI2
aI2
aI1
aI1
aI2
aI2
aI1
aI1
aI2
aI1
aI1
aI2
aI2
aI2
aI1
aI1
aI3
aI3
aI1
aI1
aI2
aI2
aI1
aI3
aI3
aI3
aI1
aI1
aI2
aI2
aI2
aI3
aI3
aI3
aI2
aI1
aI1
aI2
aI3
aI2
aI1
aI3
aI3
aI3
aI2
aI2
aI1
aI3
aI1
aI1
aI3
aI2
aI3
aI3
aI2
aI2
aI3
aI2
aI1
aI2
aI1
aI2
aI2
aI3
aI2
aI2
aI3
aI1
aI2
aI3
aI3
aI2
aI3
aI3
aI3
aI1
aI2
aI2
aI2
aI1
aI1
aI3
aI1
aI2
aI3
aI1
aI2
aI2
aI3
aI2
aI1
aI3
aI3
aI3
aI3
aI1
aI1
aI2
aI1
aI2
aI2
aI3
aI1
aI3
aI3
aI2
aI2
aI2
aI2
aI2
aI2
aI1
aI3
aI3
aI3
aI3
aI2
aI2
aI1
aI1
aI3
aI2
aI3
aI2
aI1
aI1
aI2
aI3
aI1
aI3
aI1
asS'vocabulary'
p53
(lp54
Va
p55
aValt
p56
aVand
p57
aVas
p58
aVat
p59
aVattribut
p60
aVcal
p61
aVchang
p62
aVcolumn
p63
aVcre
p64
aVfield
p65
aVfrom
p66
aVhav
p67
aVin
p68
aVinsert
p69
aVinto
p70
aVmak
p71
aVnam
p72
aVnew
p73
aVobtain
p74
aVof
p75
aVplac
p76
aVput
p77
aVrenam
p78
aVstream
p79
aVtak
p80
aVthe
p81
aVtitl
p82
aVto
p83
aVvalu
p84
aVvary
p85
aVwith
p86
as.