(dp0
S'intents'
p1
(lp2
VStream definition
p3
aVRename
p4
aVProjection
p5
asS'x_train'
p6
(lp7
(lp8
I0
aI0
aI0
aI0
aI0
aI0
aI0
aI1
aI0
aI0
aI0
aI0
aI0
aI0
aI0
aI0
aI0
aI1
aI0
aI0
aI0
aI0
aI0
aI0
aI1
aI0
aI1
aI1
aI0
aI0
aI0
aI1
aa(lp9
I1
aI0
aI0
aI0
aI0
aI0
aI1
aI0
aI1
aI1
aI0
aI0
aI1
aI0
aI0
aI0
aI0
aI0
aI1
aI0
aI0
aI0
aI0
aI0
aI1
aI0
aI0
aI0
aI0
aI0
aI0
aI0
aa(lp10
I0
aI0
aI1
aI0
aI0
aI0
aI0
aI0
aI0
aI0
aI1
aI1
aI0
aI0
aI0
aI0
aI0
aI0
aI0
aI1
aI0
aI0
aI1
aI0
aI1
aI0
aI1
aI0
aI1
aI0
aI0
aI0
aa(lp11
I1
aI0
aI0
aI0
aI0
aI0
aI1
aI0
aI0
aI0
aI0
aI0
aI0
aI0
aI0
aI0
aI1
aI0
aI1
aI0
aI0
aI0
aI0
aI0
aI1
aI0
aI0
aI0
aI0
aI1
aI0
aI1
aa(lp12
I0
aI0
aI0
aI1
aI0
aI0
aI0
aI0
aI0
aI0
aI0
aI0
aI0
aI0
aI0
aI0
aI0
aI1
aI0
aI0
aI0
aI0
aI0
aI1
aI1
aI0
aI1
aI0
aI0
aI0
aI0
aI0
aa(lp13
I0
aI1
aI0
aI0
aI0
aI0
aI0
aI0
aI0
aI0
aI0
aI0
aI0
aI0
aI0
aI0
aI0
aI1
aI0
aI0
aI1
aI0
aI0
aI0
aI1
aI0
aI1
aI0
aI1
aI0
aI0
aI0
aa(lp14
I0
aI1
aI0
aI0
aI0
aI0
aI0
aI0
aI0
aI0
aI0
aI0
aI0
aI0
aI0
aI0
aI0
aI0
aI0
aI0
aI1
aI0
aI0
aI0
aI1
aI0
aI1
aI1
aI1
aI0
aI0
aI0
aa(lp15
I0
aI0
aI1
aI0
aI0
aI0
aI0
aI0
aI0
aI0
aI1
aI1
aI0
aI0
aI1
aI1
aI0
aI0
aI0
aI1
aI0
aI0
aI0
aI0
aI1
aI0
aI1
aI0
aI0
aI0
aI0
aI0
aa(lp16
I1
aI0
aI0
aI0
aI0
aI0
aI1
aI0
aI0
aI0
aI0
aI0
aI1
aI0
aI0
aI0
aI1
aI0
aI1
aI0
aI0
aI0
aI0
aI0
aI1
aI0
aI0
aI0
aI0
aI1
aI0
aI0
aa(lp17
I0
aI0
aI1
aI0
aI0
aI0
aI0
aI0
aI0
aI0
aI1
aI1
aI0
aI0
aI0
aI0
aI0
aI0
aI0
aI0
aI0
aI0
aI1
aI0
aI1
aI1
aI1
aI0
aI1
aI0
aI0
aI0
aa(lp18
I1
aI0
aI0
aI0
aI0
aI0
aI0
aI0
aI0
aI1
aI1
aI0
aI1
aI0
aI0
aI0
aI0
aI1
aI1
aI0
aI0
aI0
aI0
aI0
aI1
aI0
aI0
aI0
aI0
aI0
aI0
aI0
aag8
ag9
a(lp19
I1
aI0
aI0
aI0
aI0
aI0
aI1
aI0
aI0
aI1
aI1
aI0
aI1
aI0
aI0
aI0
aI0
aI0
aI1
aI0
aI0
aI0
aI0
aI0
aI1
aI0
aI0
aI0
aI0
aI0
aI0
aI0
aa(lp20
I0
aI0
aI1
aI0
aI0
aI0
aI0
aI0
aI0
aI0
aI0
aI1
aI0
aI0
aI0
aI0
aI0
aI0
aI0
aI0
aI0
aI0
aI1
aI0
aI1
aI1
aI1
aI0
aI1
aI0
aI1
aI0
aag17
ag11
a(lp21
I0
aI0
aI0
aI0
aI0
aI0
aI0
aI0
aI0
aI0
aI0
aI1
aI0
aI1
aI0
aI0
aI0
aI0
aI0
aI1
aI0
aI1
aI0
aI0
aI1
aI0
aI1
aI0
aI0
aI0
aI1
aI0
aa(lp22
I0
aI0
aI0
aI0
aI0
aI0
aI0
aI0
aI0
aI0
aI0
aI0
aI0
aI0
aI0
aI0
aI0
aI0
aI0
aI0
aI0
aI0
aI0
aI1
aI1
aI0
aI1
aI1
aI0
aI0
aI0
aI1
aa(lp23
I1
aI0
aI0
aI0
aI0
aI0
aI0
aI0
aI0
aI1
aI0
aI0
aI1
aI0
aI0
aI0
aI0
aI1
aI1
aI0
aI0
aI0
aI0
aI0
aI1
aI0
aI0
aI0
aI0
aI1
aI0
aI0
aa(lp24
I0
aI0
aI0
aI0
aI0
aI0
aI0
aI0
aI0
aI0
aI0
aI0
aI0
aI0
aI0
aI0
aI0
aI1
aI0
aI0
aI0
aI0
aI0
aI1
aI1
aI0
aI1
aI1
aI0
aI0
aI0
aI1
aa(lp25
I1
aI0
aI0
aI0
aI0
aI0
aI0
aI0
aI0
aI0
aI1
aI0
aI0
aI0
aI0
aI0
aI1
aI1
aI1
aI0
aI0
aI0
aI0
aI0
aI1
aI0
aI0
aI0
aI0
aI0
aI0
aI1
aag16
a(lp26
I0
aI0
aI0
aI0
aI0
aI0
aI0
aI0
aI0
aI0
aI0
aI0
aI0
aI0
aI0
aI0
aI0
aI1
aI0
aI0
aI0
aI0
aI0
aI1
aI1
aI0
aI1
aI0
aI0
aI0
aI0
aI1
aa(lp27
I0
aI0
aI0
aI1
aI0
aI0
aI0
aI0
aI0
aI0
aI0
aI0
aI0
aI0
aI0
aI0
aI0
aI0
aI0
aI0
aI0
aI0
aI0
aI1
aI1
aI0
aI1
aI1
aI0
aI0
aI0
aI0
aa(lp28
I0
aI0
aI0
aI1
aI0
aI0
aI1
aI0
aI0
aI0
aI0
aI0
aI0
aI0
aI0
aI0
aI0
aI0
aI0
aI0
aI0
aI0
aI0
aI1
aI1
aI0
aI1
aI0
aI0
aI0
aI0
aI0
aag23
a(lp29
I0
aI0
aI1
aI0
aI0
aI1
aI0
aI0
aI0
aI0
aI0
aI1
aI0
aI0
aI1
aI1
aI0
aI0
aI0
aI1
aI0
aI0
aI0
aI0
aI1
aI0
aI1
aI0
aI0
aI0
aI0
aI0
aag14
ag26
a(lp30
I1
aI0
aI0
aI0
aI0
aI0
aI0
aI0
aI1
aI1
aI0
aI0
aI0
aI0
aI0
aI0
aI0
aI1
aI1
aI0
aI0
aI0
aI0
aI0
aI1
aI0
aI0
aI0
aI0
aI0
aI0
aI1
aa(lp31
I1
aI0
aI0
aI0
aI0
aI0
aI0
aI0
aI1
aI0
aI0
aI0
aI1
aI0
aI0
aI0
aI1
aI1
aI1
aI0
aI0
aI0
aI0
aI0
aI1
aI0
aI0
aI0
aI0
aI0
aI0
aI0
aag9
ag20
ag27
a(lp32
I0
aI0
aI0
aI0
aI0
aI0
aI1
aI1
aI0
aI0
aI0
aI0
aI0
aI0
aI0
aI0
aI0
aI0
aI0
aI0
aI0
aI0
aI0
aI0
aI1
aI0
aI1
aI0
aI1
aI0
aI0
aI0
aag17
a(lp33
I1
aI0
aI0
aI0
aI0
aI1
aI1
aI0
aI0
aI0
aI0
aI0
aI1
aI0
aI0
aI0
aI1
aI0
aI1
aI0
aI0
aI0
aI0
aI0
aI1
aI0
aI0
aI0
aI0
aI0
aI0
aI0
aa(lp34
I1
aI0
aI0
aI0
aI0
aI1
aI0
aI0
aI0
aI0
aI0
aI0
aI0
aI0
aI0
aI0
aI1
aI1
aI1
aI0
aI0
aI0
aI0
aI0
aI1
aI0
aI0
aI0
aI0
aI0
aI0
aI1
aag9
ag31
ag25
a(lp35
I1
aI0
aI0
aI0
aI0
aI0
aI1
aI0
aI1
aI0
aI0
aI0
aI0
aI0
aI0
aI0
aI1
aI0
aI1
aI0
aI0
aI0
aI0
aI0
aI1
aI0
aI0
aI0
aI0
aI0
aI0
aI1
aag29
a(lp36
I0
aI0
aI0
aI1
aI0
aI0
aI0
aI0
aI0
aI0
aI0
aI0
aI0
aI0
aI0
aI0
aI1
aI1
aI1
aI0
aI0
aI0
aI0
aI0
aI0
aI0
aI1
aI0
aI0
aI0
aI0
aI0
aag9
ag35
ag8
ag26
a(lp37
I1
aI0
aI0
aI0
aI0
aI1
aI0
aI0
aI0
aI0
aI0
aI0
aI1
aI0
aI0
aI0
aI1
aI1
aI1
aI0
aI0
aI0
aI0
aI0
aI1
aI0
aI0
aI0
aI0
aI0
aI0
aI0
aa(lp38
I0
aI0
aI0
aI0
aI0
aI0
aI0
aI0
aI0
aI0
aI0
aI1
aI0
aI1
aI0
aI0
aI0
aI0
aI0
aI0
aI0
aI1
aI0
aI0
aI1
aI1
aI1
aI0
aI0
aI0
aI1
aI0
aa(lp39
I0
aI0
aI0
aI0
aI0
aI0
aI0
aI0
aI0
aI0
aI0
aI0
aI0
aI0
aI0
aI0
aI1
aI1
aI1
aI0
aI1
aI0
aI0
aI0
aI0
aI0
aI1
aI0
aI0
aI0
aI0
aI0
aag30
ag14
ag39
ag28
ag31
a(lp40
I0
aI0
aI0
aI0
aI0
aI0
aI0
aI1
aI0
aI0
aI0
aI0
aI0
aI0
aI0
aI0
aI0
aI0
aI0
aI0
aI0
aI0
aI0
aI0
aI1
aI0
aI1
aI1
aI0
aI0
aI0
aI1
aa(lp41
I0
aI0
aI1
aI0
aI0
aI1
aI0
aI0
aI0
aI0
aI0
aI1
aI0
aI0
aI1
aI1
aI0
aI0
aI0
aI0
aI0
aI0
aI0
aI0
aI1
aI1
aI1
aI0
aI0
aI0
aI0
aI0
aag18
ag26
ag13
ag38
ag35
ag36
ag16
ag11
a(lp42
I0
aI0
aI1
aI0
aI0
aI0
aI0
aI0
aI0
aI0
aI0
aI1
aI0
aI0
aI0
aI0
aI0
aI0
aI0
aI1
aI0
aI0
aI1
aI0
aI1
aI0
aI1
aI0
aI1
aI0
aI1
aI0
aa(lp43
I0
aI0
aI1
aI0
aI0
aI0
aI0
aI0
aI0
aI0
aI1
aI1
aI0
aI0
aI1
aI1
aI0
aI0
aI0
aI0
aI0
aI0
aI0
aI0
aI1
aI1
aI1
aI0
aI0
aI0
aI0
aI0
aag20
ag14
ag15
ag18
a(lp44
I0
aI0
aI1
aI0
aI0
aI0
aI0
aI0
aI0
aI0
aI0
aI1
aI0
aI0
aI1
aI1
aI0
aI0
aI0
aI0
aI0
aI0
aI0
aI0
aI1
aI1
aI1
aI0
aI0
aI0
aI1
aI0
aa(lp45
I0
aI0
aI0
aI1
aI0
aI0
aI1
aI1
aI0
aI0
aI0
aI0
aI0
aI0
aI0
aI0
aI0
aI0
aI0
aI0
aI0
aI0
aI0
aI0
aI1
aI0
aI1
aI0
aI0
aI0
aI0
aI0
aag14
ag36
ag25
ag17
ag23
ag36
ag37
ag9
ag45
ag42
ag43
ag42
ag40
ag30
ag29
ag45
ag35
a(lp46
I0
aI0
aI1
aI0
aI0
aI0
aI0
aI0
aI0
aI0
aI0
aI1
aI0
aI0
aI1
aI1
aI0
aI0
aI0
aI1
aI0
aI0
aI0
aI0
aI1
aI0
aI1
aI0
aI0
aI0
aI1
aI0
aag18
ag35
ag38
ag24
ag33
ag11
ag24
ag34
ag8
ag21
ag11
ag44
a(lp47
I0
aI0
aI0
aI0
aI0
aI0
aI1
aI1
aI0
aI0
aI0
aI0
aI0
aI0
aI0
aI0
aI0
aI1
aI0
aI0
aI0
aI0
aI0
aI0
aI1
aI0
aI1
aI0
aI0
aI0
aI0
aI1
aag37
ag22
ag30
ag11
ag28
ag16
ag32
ag15
a(lp48
I0
aI0
aI0
aI0
aI1
aI0
aI0
aI0
aI0
aI0
aI0
aI0
aI0
aI1
aI0
aI0
aI0
aI0
aI0
aI0
aI0
aI1
aI0
aI0
aI0
aI0
aI0
aI0
aI0
aI0
aI0
aI0
aag34
ag17
ag20
ag40
ag48
a(lp49
I1
aI0
aI0
aI0
aI0
aI0
aI0
aI0
aI0
aI1
aI0
aI0
aI0
aI0
aI0
aI0
aI0
aI1
aI1
aI0
aI0
aI0
aI0
aI0
aI1
aI0
aI0
aI0
aI0
aI1
aI0
aI1
aag49
ag42
ag15
ag39
ag26
ag23
ag49
ag31
ag39
ag32
ag16
ag43
ag22
ag16
ag31
ag32
ag25
ag28
ag37
ag18
ag43
ag49
ag49
a(lp50
I0
aI0
aI0
aI0
aI0
aI0
aI0
aI0
aI0
aI0
aI0
aI1
aI0
aI1
aI0
aI0
aI0
aI0
aI0
aI0
aI0
aI1
aI0
aI0
aI0
aI0
aI0
aI0
aI0
aI0
aI0
aI0
aag10
ag31
ag30
ag33
ag11
ag32
ag39
ag18
ag23
ag32
ag37
ag26
ag48
ag45
ag25
ag29
ag21
ag46
ag12
ag9
ag49
ag12
ag46
ag43
ag40
ag48
ag27
ag30
ag36
ag12
ag12
ag9
ag45
ag17
ag22
ag29
ag23
ag32
ag9
ag18
ag48
ag31
ag42
ag30
ag8
ag24
ag32
ag35
ag31
ag45
ag33
ag34
ag31
ag17
ag33
ag32
ag46
ag44
ag27
ag14
ag34
ag14
ag27
ag35
ag39
ag39
ag38
ag17
ag17
ag32
ag10
ag28
ag23
ag50
ag43
ag19
ag46
ag29
ag26
ag27
ag25
ag47
ag22
ag39
ag31
ag14
ag10
ag35
ag9
ag9
ag46
ag47
ag14
ag26
ag29
ag18
ag28
ag36
ag16
ag48
ag27
ag14
ag15
ag9
ag12
ag30
ag11
ag33
ag34
ag31
ag24
ag36
ag38
ag33
ag14
ag24
ag44
ag22
ag33
ag19
ag30
ag50
ag13
ag20
ag23
ag12
ag28
ag28
ag33
ag12
ag12
ag20
ag19
ag44
ag40
ag16
ag43
ag13
ag16
ag23
ag13
ag47
ag41
ag47
ag14
ag8
ag25
ag18
ag43
ag25
ag19
ag43
ag26
ag23
ag14
ag9
ag10
ag19
ag40
ag14
ag39
ag14
ag21
ag42
ag48
ag18
ag12
ag37
ag18
ag10
ag30
ag49
ag8
ag13
ag20
ag26
ag22
ag41
ag33
ag34
ag8
ag39
ag38
ag12
ag12
ag30
ag17
ag29
ag43
ag27
ag35
ag37
ag27
ag12
ag44
ag37
ag10
ag32
ag49
ag39
ag32
ag27
ag17
ag12
ag36
ag43
ag11
ag17
ag41
ag22
ag46
ag19
ag9
ag36
ag30
ag45
ag21
ag46
ag28
ag29
ag36
ag11
ag40
ag28
ag31
ag32
ag23
ag22
ag44
ag38
ag20
ag17
ag37
ag10
ag38
ag14
ag33
ag18
ag25
ag47
ag45
ag21
ag33
ag27
ag42
ag12
ag48
ag48
ag46
ag48
ag14
ag47
ag40
ag22
ag50
ag20
ag28
ag8
ag28
ag36
ag18
ag33
ag47
ag43
ag40
ag48
ag42
ag43
ag47
ag24
ag44
ag15
ag27
ag23
ag26
ag30
ag41
ag46
ag50
ag11
ag11
ag19
ag37
ag21
ag50
ag45
ag27
ag26
ag29
ag35
ag19
ag24
ag50
ag30
ag24
ag39
ag25
ag44
ag23
ag11
ag21
ag29
ag23
ag50
ag26
ag33
ag42
ag26
ag39
ag18
ag29
ag48
ag32
ag44
ag8
ag45
ag50
ag50
ag37
ag46
ag11
ag42
ag19
ag21
ag32
ag23
ag28
ag31
ag50
ag28
ag50
ag41
ag30
ag16
ag33
ag19
ag25
ag49
ag24
ag21
ag40
ag18
ag40
ag11
ag15
ag34
ag47
ag38
ag9
ag26
ag39
ag44
ag41
ag37
ag31
ag26
ag13
ag19
ag17
ag17
ag48
ag42
ag27
ag29
ag34
ag44
ag44
ag33
ag43
ag49
ag32
ag20
ag24
ag26
ag21
ag11
ag41
ag40
ag42
ag28
ag15
ag50
ag32
ag21
ag49
ag12
ag29
ag39
ag38
ag13
ag38
ag47
ag50
ag18
ag36
ag15
ag48
ag33
ag34
ag28
ag40
ag20
ag10
ag49
ag16
ag45
ag39
ag18
ag18
ag36
ag21
ag24
ag24
ag10
ag40
ag43
ag42
ag22
ag44
ag45
ag32
ag40
ag11
ag30
ag24
ag37
ag29
ag26
ag33
ag13
ag45
ag29
ag11
ag16
ag13
ag9
ag41
ag46
ag27
ag33
ag50
ag49
ag10
ag31
ag16
ag34
ag47
ag44
ag12
ag16
ag38
ag25
ag36
ag31
ag32
ag47
ag49
ag38
ag40
ag35
ag18
ag37
ag49
ag39
ag22
ag35
ag27
ag35
ag10
ag50
ag41
ag31
ag26
ag43
ag15
ag26
ag20
ag31
ag14
ag27
ag24
ag16
ag46
ag41
ag40
ag8
ag40
ag38
ag23
ag33
ag48
ag39
ag15
ag40
ag38
ag17
ag16
ag16
ag18
ag30
ag30
ag36
ag38
ag50
ag36
ag43
ag47
ag42
ag24
ag44
ag35
ag25
ag47
ag13
ag22
ag45
ag8
ag45
ag17
ag8
ag19
ag25
ag33
ag42
ag47
ag38
ag8
ag28
ag31
ag41
ag19
ag27
ag34
ag44
ag26
ag42
ag15
ag15
ag29
ag8
ag20
ag49
ag48
ag16
ag20
ag41
ag28
ag34
ag13
ag29
ag25
ag45
ag29
ag41
ag35
ag19
ag31
ag11
ag14
ag23
ag15
ag10
ag38
ag34
ag14
ag42
ag22
ag48
ag13
ag24
ag32
ag14
ag38
ag29
ag37
ag23
ag42
ag39
ag49
ag30
ag47
ag8
ag15
ag39
ag21
ag50
ag14
ag38
ag49
ag26
ag15
ag10
ag26
ag49
ag41
ag22
ag10
ag24
ag45
ag35
ag13
ag25
ag35
ag40
ag20
ag25
ag29
ag40
ag16
ag45
ag50
ag10
ag36
ag19
ag35
ag44
ag29
ag28
ag36
ag42
ag10
ag48
ag24
ag47
ag23
ag13
ag17
ag27
ag45
ag18
ag25
ag35
ag22
ag25
ag16
ag46
ag34
ag37
ag20
ag46
ag11
ag30
ag36
ag36
ag26
ag37
ag13
ag44
ag46
ag17
ag8
ag35
ag10
ag34
ag32
ag39
ag31
ag34
ag42
ag47
ag48
ag15
ag41
ag9
ag42
ag24
ag19
ag19
ag34
ag25
ag10
ag27
ag48
ag14
ag43
ag10
ag38
ag29
ag42
ag37
ag10
ag47
ag38
ag34
ag41
ag43
ag36
ag26
ag21
ag30
ag30
ag36
ag23
ag27
ag20
ag11
ag22
ag45
ag39
ag10
ag39
ag17
ag24
ag17
ag21
ag44
ag48
ag42
ag36
ag28
ag12
ag22
ag8
ag14
ag26
ag38
ag28
ag25
ag13
ag49
ag42
ag28
ag25
ag40
ag36
ag18
ag26
ag45
ag33
ag20
ag46
ag27
ag8
ag42
ag46
ag15
ag32
ag15
ag13
ag21
ag37
ag12
ag8
ag38
ag46
ag17
ag19
ag42
ag10
ag47
ag48
ag31
ag44
ag19
ag44
ag15
ag40
ag13
ag29
ag43
ag12
ag37
ag17
ag18
ag28
ag22
ag18
ag15
ag20
ag35
ag25
ag13
ag30
ag32
ag37
ag34
ag20
ag35
ag19
ag23
ag29
ag17
ag44
ag9
ag28
ag38
ag19
ag27
ag37
ag15
ag25
ag43
ag25
ag30
ag45
ag14
ag41
ag21
ag34
ag22
ag50
ag37
ag24
ag47
ag50
ag12
ag50
ag45
ag27
ag13
ag49
ag17
ag49
ag36
ag40
ag9
ag46
ag44
ag33
ag9
ag28
ag38
ag14
ag15
ag34
ag43
ag27
ag28
ag23
ag33
ag33
ag15
ag30
ag21
ag17
ag40
ag18
ag23
ag44
ag12
ag19
ag39
ag49
ag40
ag36
ag15
ag12
ag8
ag47
ag23
ag50
ag31
ag30
ag8
ag31
ag43
ag8
ag43
ag40
ag21
ag8
ag49
ag32
ag43
ag45
ag21
ag47
ag13
ag38
ag30
ag44
ag46
ag23
ag42
ag11
ag37
ag21
ag34
ag16
ag30
ag39
ag24
ag8
ag21
ag9
ag38
ag20
ag12
ag22
ag32
ag11
ag39
ag39
ag46
ag43
ag49
ag20
ag17
ag34
ag46
ag12
ag19
ag12
ag22
ag8
ag27
ag34
ag8
ag9
ag22
ag49
ag46
ag21
ag15
ag12
ag43
ag11
ag41
ag28
ag23
ag19
ag35
ag47
ag31
ag31
ag13
ag33
ag22
ag50
ag18
ag17
ag15
ag40
ag23
ag46
ag11
ag18
ag9
ag11
ag45
ag11
ag41
ag47
ag24
ag18
ag24
ag19
ag15
ag8
ag20
ag39
ag20
ag37
ag37
ag17
ag28
ag17
ag42
ag36
ag49
ag48
ag37
ag45
ag39
ag32
ag10
ag38
ag42
ag13
ag29
ag11
ag38
ag44
ag41
ag12
ag34
ag10
ag19
ag25
ag34
ag20
ag13
ag34
ag14
ag27
ag17
ag11
ag11
ag35
ag29
ag41
ag15
ag29
ag32
ag49
ag21
ag40
ag20
ag29
ag36
ag33
ag46
ag48
ag8
ag40
ag26
ag26
ag25
ag30
ag33
ag19
ag40
ag26
ag16
ag50
ag10
ag13
ag46
ag14
ag21
ag39
ag48
ag50
ag20
ag31
ag33
ag21
ag50
ag20
ag49
ag23
ag41
ag35
ag23
ag16
ag18
ag22
ag19
ag14
ag14
ag34
ag30
ag12
ag31
ag45
ag47
ag19
ag23
ag37
ag39
ag25
ag13
ag50
ag26
ag50
ag9
ag13
ag10
ag46
ag8
ag45
ag46
ag21
ag22
ag28
ag43
ag36
ag24
ag25
ag10
ag22
ag10
ag45
ag44
ag38
ag41
ag48
ag8
ag20
ag44
ag23
ag9
ag13
ag28
ag43
ag10
ag34
ag27
ag41
ag44
ag31
ag16
ag12
asS'y_train'
p51
(lp52
I2
aI1
aI3
aI1
aI2
aI2
aI2
aI3
aI1
aI3
aI1
aI2
aI1
aI1
aI3
aI3
aI1
aI3
aI2
aI1
aI2
aI1
aI1
aI2
aI2
aI2
aI1
aI3
aI2
aI2
aI1
aI1
aI1
aI3
aI2
aI2
aI3
aI1
aI1
aI1
aI1
aI1
aI1
aI3
aI2
aI1
aI1
aI2
aI2
aI1
aI3
aI2
aI1
aI2
aI2
aI2
aI1
aI2
aI3
aI1
aI2
aI2
aI3
aI1
aI2
aI1
aI1
aI3
aI3
aI3
aI2
aI3
aI1
aI3
aI2
aI2
aI2
aI1
aI3
aI1
aI2
aI1
aI1
aI2
aI3
aI3
aI3
aI2
aI1
aI3
aI2
aI1
aI3
aI1
aI1
aI3
aI2
aI1
aI1
aI2
aI1
aI2
aI3
aI1
aI3
aI2
aI1
aI2
aI1
aI1
aI2
aI1
aI2
aI3
aI3
aI1
aI3
aI3
aI2
aI3
aI1
aI1
aI3
aI3
aI2
aI2
aI1
aI1
aI1
aI2
aI2
aI1
aI3
aI2
aI1
aI1
aI2
aI1
aI2
aI1
aI1
aI3
aI1
aI1
aI3
aI3
aI1
aI1
aI1
aI1
aI2
aI2
aI1
aI1
aI2
aI1
aI2
aI3
aI2
aI1
aI3
aI3
aI3
aI2
aI1
aI1
aI2
aI3
aI3
aI2
aI3
aI2
aI1
aI2
aI2
aI2
aI1
aI2
aI3
aI2
aI3
aI1
aI2
aI1
aI1
aI3
aI1
aI3
aI1
aI2
aI2
aI2
aI1
aI1
aI2
aI1
aI1
aI1
aI3
aI1
aI2
aI3
aI3
aI2
aI2
aI1
aI2
aI2
aI1
aI2
aI2
aI3
aI3
aI3
aI2
aI3
aI2
aI1
aI3
aI3
aI1
aI3
aI3
aI2
aI2
aI1
aI2
aI2
aI2
aI1
aI2
aI3
aI1
aI1
aI1
aI3
aI2
aI2
aI2
aI3
aI1
aI2
aI2
aI1
aI3
aI2
aI2
aI3
aI1
aI2
aI1
aI1
aI1
aI1
aI1
aI2
aI2
aI3
aI1
aI2
aI2
aI3
aI2
aI1
aI1
aI1
aI3
aI2
aI3
aI1
aI2
aI2
aI2
aI1
aI2
aI2
aI3
aI1
aI3
aI2
aI1
aI3
aI2
aI1
aI1
aI2
aI2
aI3
aI2
aI2
aI2
aI1
aI1
aI3
aI1
aI1
aI3
aI2
aI1
aI2
aI1
aI3
aI1
aI2
aI2
aI2
aI2
aI3
aI3
aI3
aI1
aI2
aI1
aI1
aI3
aI1
aI1
aI2
aI2
aI3
aI2
aI2
aI3
aI1
aI1
aI2
aI2
aI3
aI2
aI2
aI1
aI3
aI3
aI3
aI2
aI1
aI1
aI2
aI2
aI3
aI1
aI3
aI2
aI1
aI2
aI2
aI2
aI3
aI2
aI2
aI3
aI1
aI3
aI3
aI2
aI3
aI1
aI1
aI2
aI1
aI2
aI3
aI3
aI2
aI3
aI2
aI1
aI2
aI2
aI1
aI2
aI1
aI2
aI3
aI3
aI3
aI3
aI1
aI3
aI3
aI2
aI1
aI1
aI1
aI2
aI2
aI3
aI1
aI2
aI3
aI2
aI3
aI3
aI3
aI3
aI2
aI2
aI2
aI2
aI3
aI3
aI2
aI2
aI2
aI2
aI1
aI1
aI2
aI3
aI2
aI3
aI3
aI3
aI2
aI2
aI3
aI3
aI2
aI1
aI2
aI1
aI3
aI3
aI3
aI1
aI1
aI1
aI1
aI3
aI3
aI2
aI2
aI2
aI3
aI1
aI1
aI2
aI3
aI1
aI2
aI2
aI1
aI3
aI1
aI1
aI3
aI3
aI1
aI3
aI2
aI1
aI3
aI2
aI2
aI1
aI3
aI3
aI2
aI3
aI2
aI2
aI3
aI3
aI1
aI3
aI1
aI3
aI1
aI3
aI2
aI1
aI2
aI1
aI3
aI2
aI3
aI3
aI1
aI1
aI1
aI1
aI1
aI1
aI2
aI3
aI2
aI1
aI2
aI1
aI3
aI1
aI2
aI3
aI1
aI2
aI2
aI3
aI3
aI1
aI1
aI2
aI2
aI1
aI3
aI3
aI3
aI3
aI2
aI3
aI1
aI3
aI3
aI1
aI3
aI1
aI2
aI3
aI2
aI2
aI3
aI1
aI3
aI2
aI3
aI2
aI3
aI3
aI2
aI3
aI1
aI2
aI3
aI2
aI3
aI2
aI3
aI2
aI3
aI1
aI2
aI3
aI3
aI1
aI1
aI2
aI2
aI3
aI3
aI1
aI1
aI2
aI2
aI1
aI1
aI2
aI3
aI2
aI2
aI3
aI2
aI3
aI3
aI2
aI3
aI2
aI2
aI2
aI1
aI1
aI2
aI1
aI3
aI2
aI1
aI2
aI2
aI3
aI1
aI1
aI2
aI1
aI3
aI3
aI2
aI1
aI3
aI1
aI3
aI1
aI1
aI1
aI2
aI3
aI2
aI1
aI3
aI1
aI2
aI1
aI2
aI2
aI1
aI3
aI2
aI1
aI1
aI1
aI1
aI2
aI2
aI1
aI2
aI1
aI3
aI3
aI3
aI1
aI2
aI3
aI3
aI2
aI3
aI1
aI2
aI2
aI2
aI1
aI3
aI3
aI2
aI2
aI2
aI3
aI1
aI1
aI3
aI2
aI3
aI2
aI3
aI3
aI1
aI1
aI1
aI1
aI1
aI2
aI3
aI3
aI2
aI3
aI2
aI3
aI2
aI3
aI1
aI1
aI2
aI2
aI2
aI2
aI2
aI2
aI3
aI2
aI1
aI1
aI1
aI3
aI2
aI3
aI2
aI2
aI1
aI3
aI1
aI2
aI1
aI3
aI2
aI3
aI3
aI3
aI3
aI2
aI3
aI1
aI3
aI1
aI3
aI3
aI2
aI1
aI2
aI3
aI1
aI2
aI3
aI3
aI1
aI1
aI1
aI1
aI2
aI1
aI3
aI3
aI3
aI1
aI2
aI3
aI2
aI3
aI2
aI2
aI2
aI2
aI3
aI3
aI1
aI1
aI3
aI2
aI1
aI1
aI2
aI2
aI3
aI2
aI3
aI3
aI2
aI3
aI1
aI2
aI3
aI3
aI2
aI1
aI3
aI2
aI3
aI2
aI2
aI1
aI2
aI1
aI1
aI2
aI3
aI1
aI3
aI2
aI1
aI2
aI3
aI3
aI2
aI1
aI1
aI3
aI3
aI2
aI2
aI3
aI3
aI3
aI2
aI2
aI1
aI2
aI3
aI2
aI2
aI1
aI1
aI1
aI2
aI1
aI1
aI3
aI1
aI1
aI3
aI3
aI1
aI1
aI2
aI2
aI2
aI1
aI2
aI3
aI3
aI3
aI2
aI1
aI3
aI1
aI2
aI2
aI1
aI1
aI3
aI2
aI3
aI3
aI3
aI1
aI3
aI2
aI1
aI1
aI1
aI1
aI3
aI2
aI3
aI2
aI3
aI3
aI3
aI3
aI3
aI1
aI3
aI2
aI3
aI1
aI3
aI3
aI2
aI2
aI3
aI1
aI1
aI2
aI1
aI2
aI3
aI1
aI2
aI2
aI2
aI3
aI2
aI3
aI2
aI3
aI3
aI3
aI3
aI3
aI2
aI2
aI2
aI2
aI2
aI2
aI2
aI3
aI2
aI1
aI2
aI1
aI3
aI2
aI1
aI2
aI2
aI1
aI2
aI2
aI1
aI3
aI3
aI2
aI2
aI3
aI3
aI3
aI2
aI3
aI2
aI3
aI1
aI2
aI2
aI3
aI3
aI3
aI1
aI3
aI3
aI2
aI3
aI1
aI3
aI1
aI3
aI3
aI2
aI2
aI3
aI3
aI2
aI1
aI3
aI1
aI2
aI2
aI1
aI3
aI3
aI1
aI1
aI2
aI1
aI2
aI1
aI1
aI3
aI1
aI1
aI1
aI3
aI3
aI3
aI1
aI2
aI3
aI1
aI2
aI1
aI3
aI1
aI3
aI1
aI1
aI2
aI2
aI3
aI3
aI1
aI2
aI3
aI1
aI2
aI2
aI3
aI2
aI3
aI2
aI2
aI2
aI1
aI3
aI1
aI2
aI2
aI1
aI3
aI3
aI1
aI1
aI2
aI3
aI2
aI3
aI1
aI3
aI2
aI2
aI1
aI1
aI1
aI3
aI1
aI3
aI3
aI2
aI1
aI1
aI3
aI2
aI1
aI2
aI1
aI2
aI2
aI3
aI2
aI2
aI2
aI1
aI3
aI1
aI1
aI2
aI1
aI3
aI2
aI3
aI2
aI3
aI2
aI1
aI2
aI3
aI2
aI3
aI2
aI2
aI3
aI1
aI3
aI3
aI1
aI3
aI1
aI1
aI3
aI1
aI1
aI1
aI2
aI2
aI2
aI3
aI1
aI3
aI3
aI2
aI2
aI2
aI1
aI2
aI2
aI3
aI3
aI1
aI3
aI3
aI1
aI3
aI2
aI1
aI2
aI2
aI2
aI2
aI1
aI2
aI1
aI2
aI1
aI3
aI3
aI3
aI2
aI3
aI1
aI3
aI2
aI1
aI1
aI1
aI2
aI1
aI1
aI2
aI1
aI2
aI3
aI1
aI3
aI3
aI2
aI1
aI3
aI1
aI1
aI1
aI1
aI2
aI1
aI3
aI2
aI2
aI1
aI2
aI1
aI3
aI2
aI3
aI2
aI3
aI1
aI1
aI3
aI2
aI3
aI3
aI2
aI1
aI3
aI1
aI2
aI2
aI2
aI3
aI3
aI3
aI2
aI3
aI1
aI3
aI3
aI3
aI2
aI1
aI3
aI1
aI1
aI1
aI3
aI2
aI1
aI2
aI2
aI3
aI1
aI1
aI1
aI3
aI3
aI3
aI3
aI2
aI1
aI3
aI2
aI3
aI3
aI2
aI1
aI3
aI3
aI2
aI2
aI2
aI2
aI1
aI1
aI1
aI1
aI2
aI2
aI1
aI3
aI3
aI2
aI3
aI2
aI3
aI2
aI3
aI3
aI3
aI1
aI1
aI3
aI3
aI3
aI1
aI1
aI3
aI1
aI1
aI1
aI1
aI2
aI1
aI2
aI2
aI1
aI1
aI2
aI1
aI2
aI2
aI1
aI1
aI1
aI2
aI1
aI2
aI3
aI2
aI3
aI1
aI2
aI3
aI3
aI2
aI2
aI3
aI3
aI2
aI2
aI3
aI2
aI2
aI1
aI3
aI2
aI3
aI2
aI3
aI3
aI3
aI3
aI2
aI3
aI3
aI1
aI1
aI2
aI2
aI3
aI3
aI1
aI2
aI3
aI3
aI1
aI1
aI2
asS'vocabulary'
p53
(lp54
VMake
p55
aVa
p56
aVnew
p57
aVstream
p58
aVnamed
p59
aVhaving
p60
aVattributes
p61
aVMake
p62
ag56
aVnew
p63
aVstream
p64
aVnamed
p65
aVhaving
p66
aVcolumns
p67
aVCreate
p68
ag56
aVnew
p69
aVstream
p70
aVnamed
p71
aVhaving
p72
aVvalues
p73
aVCreate
p74
ag56
aVnew
p75
aVstream
p76
aVnamed
p77
aVhaving
p78
aVfields
p79
aVMake
p80
ag56
aVnew
p81
aVstream
p82
aVcalled
p83
aVhaving
p84
aVattributes
p85
aVMake
p86
ag56
aVnew
p87
aVstream
p88
aVcalled
p89
aVhaving
p90
aVvalues
p91
aVCreate
p92
ag56
aVnew
p93
aVstream
p94
aVcalled
p95
aVhaving
p96
aVfields
p97
aVCreate
p98
ag56
aVnew
p99
aVstream
p100
aVcalled
p101
aVhaving
p102
aVcolumns
p103
aVMake
p104
ag56
aVnew
p105
aVstream
p106
aVnamed
p107
aVwith
p108
aVattributes
p109
aVMake
p110
ag56
aVnew
p111
aVstream
p112
aVnamed
p113
aVwith
p114
aVfields
p115
aVCreate
p116
ag56
aVnew
p117
aVstream
p118
aVnamed
p119
aVwith
p120
aVvalues
p121
aVCreate
p122
ag56
aVnew
p123
aVstream
p124
aVnamed
p125
aVwith
p126
aVcolumns
p127
aVMake
p128
ag56
aVnew
p129
aVstream
p130
aVcalled
p131
aVwith
p132
aVvalues
p133
aVMake
p134
ag56
aVnew
p135
aVstream
p136
aVcalled
p137
aVwith
p138
aVcolumns
p139
aVAlter
p140
aVthe
p141
aVname
p142
aVof
p143
aVstream
p144
aVto
p145
aVAlter
p146
aVthe
p147
aVtitle
p148
aVof
p149
aVstream
p150
aVto
p151
aVRename
p152
aVthe
p153
aVstream
p154
aVnamed
p155
aVwith
p156
aVthe
p157
aVname
p158
aVRename
p159
aVthe
p160
aVstream
p161
aVnamed
p162
aVwith
p163
aVthe
p164
aVtitle
p165
aVRename
p166
aVthe
p167
aVstream
p168
aVnamed
p169
aVas
p170
aVRename
p171
aVthe
p172
aVstream
p173
aVtitled
p174
aVas
p175
aVRename
p176
aVthe
p177
aVstream
p178
aVtitled
p179
aVwith
p180
aVthe
p181
aVtitle
p182
aVmake
p183
aVthe
p184
aVnew
p185
aVname
p186
aVof
p187
aVmake
p188
aVthe
p189
aVnew
p190
aVname
p191
aVas
p192
aVRename
p193
aVthe
p194
aVstream
p195
aVcalled
p196
aVas
p197
aVChange
p198
aVthe
p199
aVstream
p200
aVtitled
p201
aVwith
p202
aVthe
p203
aVtitle
p204
aVChange
p205
aVthe
p206
aVstream
p207
aVtitled
p208
aVwith
p209
aVthe
p210
aVname
p211
aVChange
p212
aVthe
p213
aVstream
p214
aVcalled
p215
aVas
p216
aVChange
p217
aVthe
p218
aVstream
p219
aVcalled
p220
aVwith
p221
aVthe
p222
aVname
p223
aVChange
p224
aVthe
p225
aVstream
p226
aVcalled
p227
aVto
p228
aVTake
p229
aVthe
p230
aVfields
p231
aVfrom
p232
aVthe
p233
aVstream
p234
aVand
p235
aVinsert
p236
aVinto
p237
aVTake
p238
aVfields
p239
aVfrom
p240
aVthe
p241
aVstream
p242
aVand
p243
aVput
p244
aVto
p245
aVTake
p246
aVattributes
p247
aVfrom
p248
aVthe
p249
aVstream
p250
aVand
p251
aVinsert
p252
aVinto
p253
aVTake
p254
aVvariables
p255
aVfrom
p256
aVthe
p257
aVstream
p258
aVplace
p259
aVin
p260
aVTake
p261
aVvariables
p262
aVfrom
p263
aVthe
p264
aVstream
p265
aVand
p266
aVput
p267
aVto
p268
aVTake
p269
aVvariables
p270
aVfrom
p271
aVthe
p272
aVstream
p273
aVand
p274
aVinsert
p275
aVinto
p276
aVPlace
p277
aVfrom
p278
aVin
p279
aVPlace
p280
aVin
p281
aVat
p282
aVObtain
p283
aVthe
p284
aVfields
p285
aVfrom
p286
aVthe
p287
aVstream
p288
aVand
p289
aVinsert
p290
aVinto
p291
aVObtain
p292
aVfields
p293
aVfrom
p294
aVthe
p295
aVstream
p296
aVand
p297
aVput
p298
aVto
p299
aVObtain
p300
aVattributes
p301
aVfrom
p302
aVthe
p303
aVstream
p304
aVand
p305
aVinsert
p306
aVinto
p307
aVObtain
p308
aVvariables
p309
aVfrom
p310
aVthe
p311
aVstream
p312
aVplace
p313
aVin
p314
aVObtain
p315
aVvariables
p316
aVfrom
p317
aVthe
p318
aVstream
p319
aVand
p320
aVput
p321
aVto
p322
aVObtain
p323
aVvariables
p324
aVfrom
p325
aVthe
p326
aVstream
p327
aVand
p328
aVinsert
p329
aVinto
p330
as.